
code0.elf:     file format elf32-bigmips


Disassembly of section .text.start:

10000000 <_entry>:
10000000:	3c051001 	lui	a1,0x1001
10000004:	24a56ca0 	addiu	a1,a1,27808
10000008:	3c041009 	lui	a0,0x1009
1000000c:	24842118 	addiu	a0,a0,8472
10000010:	3c1c1001 	lui	gp,0x1001
10000014:	279c6c9c 	addiu	gp,gp,27804
10000018:	3c1d2000 	lui	sp,0x2000
1000001c:	27bdfffc 	addiu	sp,sp,-4
10000020:	aca00000 	sw	zero,0(a1)
10000024:	00a4182a 	slt	v1,a1,a0
10000028:	24a50004 	addiu	a1,a1,4
1000002c:	1460fffc 	bnez	v1,10000020 <_entry+0x20>
10000030:	00000000 	nop
10000034:	0c000482 	jal	10001208 <main>
10000038:	00000000 	nop
1000003c:	3c1ae000 	lui	k0,0xe000
10000040:	af400000 	sw	zero,0(k0)
10000044:	1000ffff 	b	10000044 <_entry+0x44>
10000048:	00000000 	nop
	...

10000100 <_isr>:
10000100:	23bdff98 	addi	sp,sp,-104
10000104:	afa10010 	sw	at,16(sp)
10000108:	afa20014 	sw	v0,20(sp)
1000010c:	afa30018 	sw	v1,24(sp)
10000110:	afa4001c 	sw	a0,28(sp)
10000114:	afa50020 	sw	a1,32(sp)
10000118:	afa60024 	sw	a2,36(sp)
1000011c:	afa70028 	sw	a3,40(sp)
10000120:	afa8002c 	sw	t0,44(sp)
10000124:	afa90030 	sw	t1,48(sp)
10000128:	afaa0034 	sw	t2,52(sp)
1000012c:	afab0038 	sw	t3,56(sp)
10000130:	afac003c 	sw	t4,60(sp)
10000134:	afad0040 	sw	t5,64(sp)
10000138:	afae0044 	sw	t6,68(sp)
1000013c:	afaf0048 	sw	t7,72(sp)
10000140:	afb8004c 	sw	t8,76(sp)
10000144:	afb90050 	sw	t9,80(sp)
10000148:	afbf0054 	sw	ra,84(sp)
1000014c:	401a7000 	mfc0	k0,c0_epc
10000150:	235afffc 	addi	k0,k0,-4
10000154:	afba0058 	sw	k0,88(sp)
10000158:	0000d810 	mfhi	k1
1000015c:	afbb005c 	sw	k1,92(sp)
10000160:	0000d812 	mflo	k1
10000164:	afbb0060 	sw	k1,96(sp)
10000168:	3c052000 	lui	a1,0x2000
1000016c:	8ca40020 	lw	a0,32(a1)
10000170:	8ca60010 	lw	a2,16(a1)
10000174:	00862024 	and	a0,a0,a2
10000178:	0c000171 	jal	100005c4 <_irq_handler>
1000017c:	27a50000 	addiu	a1,sp,0
10000180:	8fa10010 	lw	at,16(sp)
10000184:	8fa20014 	lw	v0,20(sp)
10000188:	8fa30018 	lw	v1,24(sp)
1000018c:	8fa4001c 	lw	a0,28(sp)
10000190:	8fa50020 	lw	a1,32(sp)
10000194:	8fa60024 	lw	a2,36(sp)
10000198:	8fa70028 	lw	a3,40(sp)
1000019c:	8fa8002c 	lw	t0,44(sp)
100001a0:	8fa90030 	lw	t1,48(sp)
100001a4:	8faa0034 	lw	t2,52(sp)
100001a8:	8fab0038 	lw	t3,56(sp)
100001ac:	8fac003c 	lw	t4,60(sp)
100001b0:	8fad0040 	lw	t5,64(sp)
100001b4:	8fae0044 	lw	t6,68(sp)
100001b8:	8faf0048 	lw	t7,72(sp)
100001bc:	8fb8004c 	lw	t8,76(sp)
100001c0:	8fb90050 	lw	t9,80(sp)
100001c4:	8fbf0054 	lw	ra,84(sp)
100001c8:	8fba0058 	lw	k0,88(sp)
100001cc:	8fbb005c 	lw	k1,92(sp)
100001d0:	03600011 	mthi	k1
100001d4:	8fbb0060 	lw	k1,96(sp)
100001d8:	03600013 	mtlo	k1
100001dc:	23bd0068 	addi	sp,sp,104

100001e0 <isr_return>:
100001e0:	341b0001 	li	k1,0x1
100001e4:	03400008 	jr	k0
100001e8:	409b6000 	mtc0	k1,c0_sr

100001ec <_interrupt_set>:
100001ec:	40026000 	mfc0	v0,c0_sr
100001f0:	40846000 	mtc0	a0,c0_sr
100001f4:	03e00008 	jr	ra
100001f8:	40846000 	mtc0	a0,c0_sr

100001fc <_interrupt_init>:
100001fc:	3c051000 	lui	a1,0x1000
10000200:	24a5022c 	addiu	a1,a1,556
10000204:	8ca60000 	lw	a2,0(a1)
10000208:	ac06003c 	sw	a2,60(zero)
1000020c:	8ca60004 	lw	a2,4(a1)
10000210:	ac060040 	sw	a2,64(zero)
10000214:	8ca60008 	lw	a2,8(a1)
10000218:	ac060044 	sw	a2,68(zero)
1000021c:	8ca6000c 	lw	a2,12(a1)
10000220:	ac060048 	sw	a2,72(zero)
10000224:	03e00008 	jr	ra
10000228:	00000000 	nop

1000022c <_irq_patch>:
1000022c:	3c1a1000 	lui	k0,0x1000
10000230:	275a0100 	addiu	k0,k0,256
10000234:	03400008 	jr	k0
10000238:	00000000 	nop

1000023c <setjmp>:
1000023c:	ac900000 	sw	s0,0(a0)
10000240:	ac910004 	sw	s1,4(a0)
10000244:	ac920008 	sw	s2,8(a0)
10000248:	ac93000c 	sw	s3,12(a0)
1000024c:	ac940010 	sw	s4,16(a0)
10000250:	ac950014 	sw	s5,20(a0)
10000254:	ac960018 	sw	s6,24(a0)
10000258:	ac97001c 	sw	s7,28(a0)
1000025c:	ac9e0020 	sw	s8,32(a0)
10000260:	ac9c0024 	sw	gp,36(a0)
10000264:	ac9d0028 	sw	sp,40(a0)
10000268:	ac9f002c 	sw	ra,44(a0)
1000026c:	03e00008 	jr	ra
10000270:	34020000 	li	v0,0x0

10000274 <longjmp>:
10000274:	8c900000 	lw	s0,0(a0)
10000278:	8c910004 	lw	s1,4(a0)
1000027c:	8c920008 	lw	s2,8(a0)
10000280:	8c93000c 	lw	s3,12(a0)
10000284:	8c940010 	lw	s4,16(a0)
10000288:	8c950014 	lw	s5,20(a0)
1000028c:	8c960018 	lw	s6,24(a0)
10000290:	8c97001c 	lw	s7,28(a0)
10000294:	8c9e0020 	lw	s8,32(a0)
10000298:	8c9c0024 	lw	gp,36(a0)
1000029c:	8c9d0028 	lw	sp,40(a0)
100002a0:	8c9f002c 	lw	ra,44(a0)
100002a4:	03e00008 	jr	ra
100002a8:	34a20000 	ori	v0,a1,0x0

100002ac <_restoreexec>:
100002ac:	8c900000 	lw	s0,0(a0)
100002b0:	8c910004 	lw	s1,4(a0)
100002b4:	8c920008 	lw	s2,8(a0)
100002b8:	8c93000c 	lw	s3,12(a0)
100002bc:	8c940010 	lw	s4,16(a0)
100002c0:	8c950014 	lw	s5,20(a0)
100002c4:	8c960018 	lw	s6,24(a0)
100002c8:	8c97001c 	lw	s7,28(a0)
100002cc:	8c9e0020 	lw	s8,32(a0)
100002d0:	8c9c0024 	lw	gp,36(a0)
100002d4:	8c9d0028 	lw	sp,40(a0)
100002d8:	8c9f002c 	lw	ra,44(a0)
100002dc:	341b0001 	li	k1,0x1
100002e0:	409b6000 	mtc0	k1,c0_sr
100002e4:	03e00008 	jr	ra
100002e8:	34a20000 	ori	v0,a1,0x0

Disassembly of section .text:

100002ec <putchar>:
100002ec:	3c022000 	lui	v0,0x2000
100002f0:	ac4400d0 	sw	a0,208(v0)
100002f4:	03e00008 	jr	ra
100002f8:	00000000 	nop

100002fc <_hardware_init>:
100002fc:	3c032000 	lui	v1,0x2000
10000300:	3c02a5a5 	lui	v0,0xa5a5
10000304:	8c6400e0 	lw	a0,224(v1)
10000308:	3442a5a5 	ori	v0,v0,0xa5a5
1000030c:	14820007 	bne	a0,v0,1000032c <_hardware_init+0x30>
10000310:	3c022000 	lui	v0,0x2000
10000314:	3c02017d 	lui	v0,0x17d
10000318:	24427840 	addiu	v0,v0,30784
1000031c:	ac6200a0 	sw	v0,160(v1)
10000320:	3c020004 	lui	v0,0x4
10000324:	ac6200b0 	sw	v0,176(v1)
10000328:	3c022000 	lui	v0,0x2000
1000032c:	ac400010 	sw	zero,16(v0)
10000330:	03e00008 	jr	ra
10000334:	00000000 	nop

10000338 <_vm_init>:
10000338:	3c041000 	lui	a0,0x1000
1000033c:	27bdffe8 	addiu	sp,sp,-24
10000340:	afbf0014 	sw	ra,20(sp)
10000344:	0c0001e3 	jal	1000078c <kprintf>
10000348:	248444fc 	addiu	a0,a0,17660
1000034c:	8fbf0014 	lw	ra,20(sp)
10000350:	3c041001 	lui	a0,0x1001
10000354:	3c050007 	lui	a1,0x7
10000358:	24847f2c 	addiu	a0,a0,32556
1000035c:	34a5a120 	ori	a1,a1,0xa120
10000360:	080005a5 	j	10001694 <heapinit>
10000364:	27bd0018 	addiu	sp,sp,24

10000368 <_sched_init>:
10000368:	3c041000 	lui	a0,0x1000
1000036c:	080001e3 	j	1000078c <kprintf>
10000370:	24844510 	addiu	a0,a0,17680

10000374 <_timer_init>:
10000374:	27bdffe8 	addiu	sp,sp,-24
10000378:	3c041000 	lui	a0,0x1000
1000037c:	24844524 	addiu	a0,a0,17700
10000380:	afb00010 	sw	s0,16(sp)
10000384:	afbf0014 	sw	ra,20(sp)
10000388:	0c0001e3 	jal	1000078c <kprintf>
1000038c:	3c101000 	lui	s0,0x1000
10000390:	2605366c 	addiu	a1,s0,13932
10000394:	0c000163 	jal	1000058c <_irq_register>
10000398:	24040008 	li	a0,8
1000039c:	2605366c 	addiu	a1,s0,13932
100003a0:	0c000163 	jal	1000058c <_irq_register>
100003a4:	24040004 	li	a0,4
100003a8:	3c032000 	lui	v1,0x2000
100003ac:	8c620010 	lw	v0,16(v1)
100003b0:	8fbf0014 	lw	ra,20(sp)
100003b4:	34420008 	ori	v0,v0,0x8
100003b8:	8fb00010 	lw	s0,16(sp)
100003bc:	ac620010 	sw	v0,16(v1)
100003c0:	03e00008 	jr	ra
100003c4:	27bd0018 	addiu	sp,sp,24

100003c8 <_irq_init>:
100003c8:	3c041000 	lui	a0,0x1000
100003cc:	080001e3 	j	1000078c <kprintf>
100003d0:	24844538 	addiu	a0,a0,17720

100003d4 <_device_init>:
100003d4:	3c041000 	lui	a0,0x1000
100003d8:	27bdffe8 	addiu	sp,sp,-24
100003dc:	afbf0014 	sw	ra,20(sp)
100003e0:	0c0001e3 	jal	1000078c <kprintf>
100003e4:	2484454c 	addiu	a0,a0,17740
100003e8:	8fbf0014 	lw	ra,20(sp)
100003ec:	08000674 	j	100019d0 <ni_init>
100003f0:	27bd0018 	addiu	sp,sp,24

100003f4 <_task_init>:
100003f4:	3c041000 	lui	a0,0x1000
100003f8:	080001e3 	j	1000078c <kprintf>
100003fc:	24844564 	addiu	a0,a0,17764

10000400 <_set_task_sp>:
10000400:	3084ffff 	andi	a0,a0,0xffff
10000404:	00041880 	sll	v1,a0,0x2
10000408:	00041100 	sll	v0,a0,0x4
1000040c:	00621021 	addu	v0,v1,v0
10000410:	00442023 	subu	a0,v0,a0
10000414:	000410c0 	sll	v0,a0,0x3
10000418:	3c041001 	lui	a0,0x1001
1000041c:	24846d5c 	addiu	a0,a0,27996
10000420:	00442021 	addu	a0,v0,a0
10000424:	03e00008 	jr	ra
10000428:	ac850060 	sw	a1,96(a0)

1000042c <_get_task_sp>:
1000042c:	3084ffff 	andi	a0,a0,0xffff
10000430:	00041880 	sll	v1,a0,0x2
10000434:	00041100 	sll	v0,a0,0x4
10000438:	00621021 	addu	v0,v1,v0
1000043c:	00442023 	subu	a0,v0,a0
10000440:	000410c0 	sll	v0,a0,0x3
10000444:	3c041001 	lui	a0,0x1001
10000448:	24846d5c 	addiu	a0,a0,27996
1000044c:	00442021 	addu	a0,v0,a0
10000450:	8c820060 	lw	v0,96(a0)
10000454:	03e00008 	jr	ra
10000458:	00000000 	nop

1000045c <_set_task_tp>:
1000045c:	3084ffff 	andi	a0,a0,0xffff
10000460:	00041880 	sll	v1,a0,0x2
10000464:	00041100 	sll	v0,a0,0x4
10000468:	00621021 	addu	v0,v1,v0
1000046c:	00442023 	subu	a0,v0,a0
10000470:	000410c0 	sll	v0,a0,0x3
10000474:	3c041001 	lui	a0,0x1001
10000478:	24846d5c 	addiu	a0,a0,27996
1000047c:	00442021 	addu	a0,v0,a0
10000480:	03e00008 	jr	ra
10000484:	ac850064 	sw	a1,100(a0)

10000488 <_cpu_idle>:
10000488:	03e00008 	jr	ra
1000048c:	00000000 	nop

10000490 <_read_us>:
10000490:	3c051001 	lui	a1,0x1001
10000494:	8ca26cac 	lw	v0,27820(a1)
10000498:	27bdffe8 	addiu	sp,sp,-24
1000049c:	3c032000 	lui	v1,0x2000
100004a0:	14400015 	bnez	v0,100004f8 <_read_us+0x68>
100004a4:	afbf0014 	sw	ra,20(sp)
100004a8:	8c620060 	lw	v0,96(v1)
100004ac:	3c021001 	lui	v0,0x1001
100004b0:	8c426ca8 	lw	v0,27816(v0)
100004b4:	8c630060 	lw	v1,96(v1)
100004b8:	3c042000 	lui	a0,0x2000
100004bc:	8c860060 	lw	a2,96(a0)
100004c0:	3c031001 	lui	v1,0x1001
100004c4:	aca66cac 	sw	a2,27820(a1)
100004c8:	8c880060 	lw	t0,96(a0)
100004cc:	24070019 	li	a3,25
100004d0:	00402025 	move	a0,v0
100004d4:	01002825 	move	a1,t0
100004d8:	00003025 	move	a2,zero
100004dc:	ac626ca0 	sw	v0,27808(v1)
100004e0:	0c000460 	jal	10001180 <__udivdi3>
100004e4:	ac686ca4 	sw	t0,27812(v1)
100004e8:	8fbf0014 	lw	ra,20(sp)
100004ec:	00000000 	nop
100004f0:	03e00008 	jr	ra
100004f4:	27bd0018 	addiu	sp,sp,24
100004f8:	8c630060 	lw	v1,96(v1)
100004fc:	00000000 	nop
10000500:	0062102b 	sltu	v0,v1,v0
10000504:	10400006 	beqz	v0,10000520 <_read_us+0x90>
10000508:	3c031001 	lui	v1,0x1001
1000050c:	8c626ca8 	lw	v0,27816(v1)
10000510:	00000000 	nop
10000514:	24420001 	addiu	v0,v0,1
10000518:	0800012e 	j	100004b8 <_read_us+0x28>
1000051c:	ac626ca8 	sw	v0,27816(v1)
10000520:	3c021001 	lui	v0,0x1001
10000524:	8c426ca8 	lw	v0,27816(v0)
10000528:	0800012f 	j	100004bc <_read_us+0x2c>
1000052c:	3c042000 	lui	a0,0x2000

10000530 <_timer_reset>:
10000530:	3c032000 	lui	v1,0x2000
10000534:	8c620010 	lw	v0,16(v1)
10000538:	27bdffe8 	addiu	sp,sp,-24
1000053c:	3842000c 	xori	v0,v0,0xc
10000540:	afbf0014 	sw	ra,20(sp)
10000544:	ac620010 	sw	v0,16(v1)
10000548:	0c000124 	jal	10000490 <_read_us>
1000054c:	00000000 	nop
10000550:	3c041001 	lui	a0,0x1001
10000554:	8c826cb0 	lw	v0,27824(a0)
10000558:	3c051001 	lui	a1,0x1001
1000055c:	8fbf0014 	lw	ra,20(sp)
10000560:	00621023 	subu	v0,v1,v0
10000564:	aca36cb4 	sw	v1,27828(a1)
10000568:	3c051009 	lui	a1,0x1009
1000056c:	aca22060 	sw	v0,8288(a1)
10000570:	ac836cb0 	sw	v1,27824(a0)
10000574:	03e00008 	jr	ra
10000578:	27bd0018 	addiu	sp,sp,24

1000057c <_panic>:
1000057c:	3c02e000 	lui	v0,0xe000
10000580:	ac400000 	sw	zero,0(v0)
10000584:	03e00008 	jr	ra
10000588:	00000000 	nop

1000058c <_irq_register>:
1000058c:	3c061001 	lui	a2,0x1001
10000590:	24c66cb8 	addiu	a2,a2,27832
10000594:	00001025 	move	v0,zero
10000598:	24080001 	li	t0,1
1000059c:	24070020 	li	a3,32
100005a0:	00481804 	sllv	v1,t0,v0
100005a4:	00641824 	and	v1,v1,a0
100005a8:	10600002 	beqz	v1,100005b4 <_irq_register+0x28>
100005ac:	24420001 	addiu	v0,v0,1
100005b0:	acc50000 	sw	a1,0(a2)
100005b4:	1447fffa 	bne	v0,a3,100005a0 <_irq_register+0x14>
100005b8:	24c60004 	addiu	a2,a2,4
100005bc:	03e00008 	jr	ra
100005c0:	00000000 	nop

100005c4 <_irq_handler>:
100005c4:	3c021009 	lui	v0,0x1009
100005c8:	2442204c 	addiu	v0,v0,8268
100005cc:	8c430010 	lw	v1,16(v0)
100005d0:	27bdffe0 	addiu	sp,sp,-32
100005d4:	24630001 	addiu	v1,v1,1
100005d8:	afb10014 	sw	s1,20(sp)
100005dc:	3c111001 	lui	s1,0x1001
100005e0:	afb20018 	sw	s2,24(sp)
100005e4:	afb00010 	sw	s0,16(sp)
100005e8:	afbf001c 	sw	ra,28(sp)
100005ec:	00808025 	move	s0,a0
100005f0:	00a09025 	move	s2,a1
100005f4:	ac430010 	sw	v1,16(v0)
100005f8:	26316cb8 	addiu	s1,s1,27832
100005fc:	32020001 	andi	v0,s0,0x1
10000600:	10400007 	beqz	v0,10000620 <_irq_handler+0x5c>
10000604:	00108042 	srl	s0,s0,0x1
10000608:	8e220000 	lw	v0,0(s1)
1000060c:	00000000 	nop
10000610:	10400003 	beqz	v0,10000620 <_irq_handler+0x5c>
10000614:	02402025 	move	a0,s2
10000618:	0040f809 	jalr	v0
1000061c:	00000000 	nop
10000620:	1600fff6 	bnez	s0,100005fc <_irq_handler+0x38>
10000624:	26310004 	addiu	s1,s1,4
10000628:	8fbf001c 	lw	ra,28(sp)
1000062c:	8fb20018 	lw	s2,24(sp)
10000630:	8fb10014 	lw	s1,20(sp)
10000634:	8fb00010 	lw	s0,16(sp)
10000638:	03e00008 	jr	ra
1000063c:	27bd0020 	addiu	sp,sp,32

10000640 <_irq_mask_set>:
10000640:	27bdffe8 	addiu	sp,sp,-24
10000644:	afb00010 	sw	s0,16(sp)
10000648:	00808025 	move	s0,a0
1000064c:	afbf0014 	sw	ra,20(sp)
10000650:	0c00007b 	jal	100001ec <_interrupt_set>
10000654:	00002025 	move	a0,zero
10000658:	3c032000 	lui	v1,0x2000
1000065c:	8c650010 	lw	a1,16(v1)
10000660:	8fbf0014 	lw	ra,20(sp)
10000664:	02058025 	or	s0,s0,a1
10000668:	ac700010 	sw	s0,16(v1)
1000066c:	8fb00010 	lw	s0,16(sp)
10000670:	00402025 	move	a0,v0
10000674:	0800007b 	j	100001ec <_interrupt_set>
10000678:	27bd0018 	addiu	sp,sp,24

1000067c <kitoa.part.0>:
1000067c:	24020010 	li	v0,16
10000680:	10a20024 	beq	a1,v0,10000714 <kitoa.part.0+0x98>
10000684:	00000000 	nop
10000688:	04800034 	bltz	a0,1000075c <kitoa.part.0+0xe0>
1000068c:	00000000 	nop
10000690:	1080003a 	beqz	a0,1000077c <kitoa.part.0+0x100>
10000694:	00004025 	move	t0,zero
10000698:	3c071000 	lui	a3,0x1000
1000069c:	3c061001 	lui	a2,0x1001
100006a0:	24c66d56 	addiu	a2,a2,27990
100006a4:	2403001e 	li	v1,30
100006a8:	080001ae 	j	100006b8 <kitoa.part.0+0x3c>
100006ac:	24e74578 	addiu	a3,a3,17784
100006b0:	1060000a 	beqz	v1,100006dc <kitoa.part.0+0x60>
100006b4:	00000000 	nop
100006b8:	0085001a 	div	zero,a0,a1
100006bc:	24c6ffff 	addiu	a2,a2,-1
100006c0:	2463ffff 	addiu	v1,v1,-1
100006c4:	00001010 	mfhi	v0
100006c8:	00e21021 	addu	v0,a3,v0
100006cc:	90420000 	lbu	v0,0(v0)
100006d0:	00002012 	mflo	a0
100006d4:	1480fff6 	bnez	a0,100006b0 <kitoa.part.0+0x34>
100006d8:	a0c20001 	sb	v0,1(a2)
100006dc:	15000006 	bnez	t0,100006f8 <kitoa.part.0+0x7c>
100006e0:	00000000 	nop
100006e4:	3c021001 	lui	v0,0x1001
100006e8:	24630001 	addiu	v1,v1,1
100006ec:	24426d38 	addiu	v0,v0,27960
100006f0:	03e00008 	jr	ra
100006f4:	00431021 	addu	v0,v0,v1
100006f8:	3c021001 	lui	v0,0x1001
100006fc:	24426d38 	addiu	v0,v0,27960
10000700:	00432021 	addu	a0,v0,v1
10000704:	2405002d 	li	a1,45
10000708:	a0850000 	sb	a1,0(a0)
1000070c:	03e00008 	jr	ra
10000710:	00431021 	addu	v0,v0,v1
10000714:	10800019 	beqz	a0,1000077c <kitoa.part.0+0x100>
10000718:	3c071000 	lui	a3,0x1000
1000071c:	3c051001 	lui	a1,0x1001
10000720:	24a56d56 	addiu	a1,a1,27990
10000724:	2403001e 	li	v1,30
10000728:	080001ce 	j	10000738 <kitoa.part.0+0xbc>
1000072c:	24e74578 	addiu	a3,a3,17784
10000730:	1060000d 	beqz	v1,10000768 <kitoa.part.0+0xec>
10000734:	24a5ffff 	addiu	a1,a1,-1
10000738:	3082000f 	andi	v0,a0,0xf
1000073c:	00e21021 	addu	v0,a3,v0
10000740:	90420000 	lbu	v0,0(v0)
10000744:	00042102 	srl	a0,a0,0x4
10000748:	a0a20000 	sb	v0,0(a1)
1000074c:	1480fff8 	bnez	a0,10000730 <kitoa.part.0+0xb4>
10000750:	2463ffff 	addiu	v1,v1,-1
10000754:	080001ba 	j	100006e8 <kitoa.part.0+0x6c>
10000758:	3c021001 	lui	v0,0x1001
1000075c:	00042023 	negu	a0,a0
10000760:	080001a6 	j	10000698 <kitoa.part.0+0x1c>
10000764:	24080001 	li	t0,1
10000768:	3c021001 	lui	v0,0x1001
1000076c:	24030001 	li	v1,1
10000770:	24426d38 	addiu	v0,v0,27960
10000774:	03e00008 	jr	ra
10000778:	00431021 	addu	v0,v0,v1
1000077c:	3c021001 	lui	v0,0x1001
10000780:	2403001f 	li	v1,31
10000784:	080001bc 	j	100006f0 <kitoa.part.0+0x74>
10000788:	24426d38 	addiu	v0,v0,27960

1000078c <kprintf>:
1000078c:	27bdffc0 	addiu	sp,sp,-64
10000790:	afb70038 	sw	s7,56(sp)
10000794:	27b70044 	addiu	s7,sp,68
10000798:	afb60034 	sw	s6,52(sp)
1000079c:	afb50030 	sw	s5,48(sp)
100007a0:	afb4002c 	sw	s4,44(sp)
100007a4:	afb30028 	sw	s3,40(sp)
100007a8:	afb20024 	sw	s2,36(sp)
100007ac:	afb0001c 	sw	s0,28(sp)
100007b0:	afbf003c 	sw	ra,60(sp)
100007b4:	afb10020 	sw	s1,32(sp)
100007b8:	afa50044 	sw	a1,68(sp)
100007bc:	afa60048 	sw	a2,72(sp)
100007c0:	afa7004c 	sw	a3,76(sp)
100007c4:	00808025 	move	s0,a0
100007c8:	afb70010 	sw	s7,16(sp)
100007cc:	24120025 	li	s2,37
100007d0:	24130064 	li	s3,100
100007d4:	3c151000 	lui	s5,0x1000
100007d8:	24140073 	li	s4,115
100007dc:	3c161000 	lui	s6,0x1000
100007e0:	82040000 	lb	a0,0(s0)
100007e4:	00000000 	nop
100007e8:	10800009 	beqz	a0,10000810 <kprintf+0x84>
100007ec:	00000000 	nop
100007f0:	10920013 	beq	a0,s2,10000840 <kprintf+0xb4>
100007f4:	00000000 	nop
100007f8:	0c0000bb 	jal	100002ec <putchar>
100007fc:	26100001 	addiu	s0,s0,1
10000800:	82040000 	lb	a0,0(s0)
10000804:	00000000 	nop
10000808:	1480fff9 	bnez	a0,100007f0 <kprintf+0x64>
1000080c:	00000000 	nop
10000810:	8fbf003c 	lw	ra,60(sp)
10000814:	8fb70038 	lw	s7,56(sp)
10000818:	8fb60034 	lw	s6,52(sp)
1000081c:	8fb50030 	lw	s5,48(sp)
10000820:	8fb4002c 	lw	s4,44(sp)
10000824:	8fb30028 	lw	s3,40(sp)
10000828:	8fb20024 	lw	s2,36(sp)
1000082c:	8fb10020 	lw	s1,32(sp)
10000830:	8fb0001c 	lw	s0,28(sp)
10000834:	00001025 	move	v0,zero
10000838:	03e00008 	jr	ra
1000083c:	27bd0040 	addiu	sp,sp,64
10000840:	82020001 	lb	v0,1(s0)
10000844:	00000000 	nop
10000848:	10530021 	beq	v0,s3,100008d0 <kprintf+0x144>
1000084c:	28430065 	slti	v1,v0,101
10000850:	1060000a 	beqz	v1,1000087c <kprintf+0xf0>
10000854:	00000000 	nop
10000858:	10520042 	beq	v0,s2,10000964 <kprintf+0x1d8>
1000085c:	24030063 	li	v1,99
10000860:	1443003c 	bne	v0,v1,10000954 <kprintf+0x1c8>
10000864:	00000000 	nop
10000868:	82e40003 	lb	a0,3(s7)
1000086c:	0c0000bb 	jal	100002ec <putchar>
10000870:	26f70004 	addiu	s7,s7,4
10000874:	080001f8 	j	100007e0 <kprintf+0x54>
10000878:	26100002 	addiu	s0,s0,2
1000087c:	10540025 	beq	v0,s4,10000914 <kprintf+0x188>
10000880:	24030078 	li	v1,120
10000884:	14430033 	bne	v0,v1,10000954 <kprintf+0x1c8>
10000888:	00000000 	nop
1000088c:	8ee40000 	lw	a0,0(s7)
10000890:	00000000 	nop
10000894:	14800037 	bnez	a0,10000974 <kprintf+0x1e8>
10000898:	26f70004 	addiu	s7,s7,4
1000089c:	26a2458c 	addiu	v0,s5,17804
100008a0:	80440000 	lb	a0,0(v0)
100008a4:	00000000 	nop
100008a8:	1080fff2 	beqz	a0,10000874 <kprintf+0xe8>
100008ac:	24510001 	addiu	s1,v0,1
100008b0:	0c0000bb 	jal	100002ec <putchar>
100008b4:	26310001 	addiu	s1,s1,1
100008b8:	8224ffff 	lb	a0,-1(s1)
100008bc:	00000000 	nop
100008c0:	1480fffb 	bnez	a0,100008b0 <kprintf+0x124>
100008c4:	00000000 	nop
100008c8:	080001f8 	j	100007e0 <kprintf+0x54>
100008cc:	26100002 	addiu	s0,s0,2
100008d0:	8ee40000 	lw	a0,0(s7)
100008d4:	00000000 	nop
100008d8:	1480002a 	bnez	a0,10000984 <kprintf+0x1f8>
100008dc:	26f70004 	addiu	s7,s7,4
100008e0:	26a2458c 	addiu	v0,s5,17804
100008e4:	80440000 	lb	a0,0(v0)
100008e8:	00000000 	nop
100008ec:	1080ffe1 	beqz	a0,10000874 <kprintf+0xe8>
100008f0:	24510001 	addiu	s1,v0,1
100008f4:	0c0000bb 	jal	100002ec <putchar>
100008f8:	26310001 	addiu	s1,s1,1
100008fc:	8224ffff 	lb	a0,-1(s1)
10000900:	00000000 	nop
10000904:	1480fffb 	bnez	a0,100008f4 <kprintf+0x168>
10000908:	00000000 	nop
1000090c:	080001f8 	j	100007e0 <kprintf+0x54>
10000910:	26100002 	addiu	s0,s0,2
10000914:	8ef10000 	lw	s1,0(s7)
10000918:	00000000 	nop
1000091c:	1220001d 	beqz	s1,10000994 <kprintf+0x208>
10000920:	26f70004 	addiu	s7,s7,4
10000924:	82240000 	lb	a0,0(s1)
10000928:	00000000 	nop
1000092c:	1080ffd1 	beqz	a0,10000874 <kprintf+0xe8>
10000930:	00000000 	nop
10000934:	0c0000bb 	jal	100002ec <putchar>
10000938:	26310001 	addiu	s1,s1,1
1000093c:	82240000 	lb	a0,0(s1)
10000940:	00000000 	nop
10000944:	1480fffb 	bnez	a0,10000934 <kprintf+0x1a8>
10000948:	00000000 	nop
1000094c:	080001f8 	j	100007e0 <kprintf+0x54>
10000950:	26100002 	addiu	s0,s0,2
10000954:	0c0000bb 	jal	100002ec <putchar>
10000958:	2404003f 	li	a0,63
1000095c:	080001f8 	j	100007e0 <kprintf+0x54>
10000960:	26100002 	addiu	s0,s0,2
10000964:	0c0000bb 	jal	100002ec <putchar>
10000968:	24040025 	li	a0,37
1000096c:	080001f8 	j	100007e0 <kprintf+0x54>
10000970:	26100002 	addiu	s0,s0,2
10000974:	0c00019f 	jal	1000067c <kitoa.part.0>
10000978:	24050010 	li	a1,16
1000097c:	08000228 	j	100008a0 <kprintf+0x114>
10000980:	00000000 	nop
10000984:	0c00019f 	jal	1000067c <kitoa.part.0>
10000988:	2405000a 	li	a1,10
1000098c:	08000239 	j	100008e4 <kprintf+0x158>
10000990:	00000000 	nop
10000994:	08000249 	j	10000924 <kprintf+0x198>
10000998:	26d14590 	addiu	s1,s6,17808

1000099c <prints>:
1000099c:	27bdffd8 	addiu	sp,sp,-40
100009a0:	afb3001c 	sw	s3,28(sp)
100009a4:	afb20018 	sw	s2,24(sp)
100009a8:	afb00010 	sw	s0,16(sp)
100009ac:	afbf0024 	sw	ra,36(sp)
100009b0:	00808025 	move	s0,a0
100009b4:	afb40020 	sw	s4,32(sp)
100009b8:	afb10014 	sw	s1,20(sp)
100009bc:	00c09825 	move	s3,a2
100009c0:	80a40000 	lb	a0,0(a1)
100009c4:	18c0005a 	blez	a2,10000b30 <prints+0x194>
100009c8:	00a09025 	move	s2,a1
100009cc:	10800048 	beqz	a0,10000af0 <prints+0x154>
100009d0:	00a01025 	move	v0,a1
100009d4:	00008825 	move	s1,zero
100009d8:	24420001 	addiu	v0,v0,1
100009dc:	80430000 	lb	v1,0(v0)
100009e0:	00000000 	nop
100009e4:	1460fffc 	bnez	v1,100009d8 <prints+0x3c>
100009e8:	26310001 	addiu	s1,s1,1
100009ec:	0233102a 	slt	v0,s1,s3
100009f0:	14400040 	bnez	v0,10000af4 <prints+0x158>
100009f4:	30e20002 	andi	v0,a3,0x2
100009f8:	10400041 	beqz	v0,10000b00 <prints+0x164>
100009fc:	00008825 	move	s1,zero
10000a00:	30e70001 	andi	a3,a3,0x1
10000a04:	24140030 	li	s4,48
10000a08:	14e00041 	bnez	a3,10000b10 <prints+0x174>
10000a0c:	02209825 	move	s3,s1
10000a10:	1a200048 	blez	s1,10000b34 <prints+0x198>
10000a14:	00000000 	nop
10000a18:	1200004e 	beqz	s0,10000b54 <prints+0x1b8>
10000a1c:	00000000 	nop
10000a20:	8e020000 	lw	v0,0(s0)
10000a24:	00000000 	nop
10000a28:	a0540000 	sb	s4,0(v0)
10000a2c:	8e020000 	lw	v0,0(s0)
10000a30:	00000000 	nop
10000a34:	24420001 	addiu	v0,v0,1
10000a38:	ae020000 	sw	v0,0(s0)
10000a3c:	2673ffff 	addiu	s3,s3,-1
10000a40:	1660fff5 	bnez	s3,10000a18 <prints+0x7c>
10000a44:	00000000 	nop
10000a48:	82440000 	lb	a0,0(s2)
10000a4c:	00000000 	nop
10000a50:	1080001e 	beqz	a0,10000acc <prints+0x130>
10000a54:	00000000 	nop
10000a58:	12000031 	beqz	s0,10000b20 <prints+0x184>
10000a5c:	00000000 	nop
10000a60:	8e020000 	lw	v0,0(s0)
10000a64:	00000000 	nop
10000a68:	a0440000 	sb	a0,0(v0)
10000a6c:	8e020000 	lw	v0,0(s0)
10000a70:	00000000 	nop
10000a74:	24420001 	addiu	v0,v0,1
10000a78:	ae020000 	sw	v0,0(s0)
10000a7c:	26520001 	addiu	s2,s2,1
10000a80:	82440000 	lb	a0,0(s2)
10000a84:	00000000 	nop
10000a88:	1480fff3 	bnez	a0,10000a58 <prints+0xbc>
10000a8c:	26310001 	addiu	s1,s1,1
10000a90:	1a60000e 	blez	s3,10000acc <prints+0x130>
10000a94:	02609025 	move	s2,s3
10000a98:	1200002a 	beqz	s0,10000b44 <prints+0x1a8>
10000a9c:	00000000 	nop
10000aa0:	8e020000 	lw	v0,0(s0)
10000aa4:	00000000 	nop
10000aa8:	a0540000 	sb	s4,0(v0)
10000aac:	8e020000 	lw	v0,0(s0)
10000ab0:	00000000 	nop
10000ab4:	24420001 	addiu	v0,v0,1
10000ab8:	ae020000 	sw	v0,0(s0)
10000abc:	2652ffff 	addiu	s2,s2,-1
10000ac0:	1640fff5 	bnez	s2,10000a98 <prints+0xfc>
10000ac4:	00000000 	nop
10000ac8:	02338821 	addu	s1,s1,s3
10000acc:	8fbf0024 	lw	ra,36(sp)
10000ad0:	02201025 	move	v0,s1
10000ad4:	8fb40020 	lw	s4,32(sp)
10000ad8:	8fb3001c 	lw	s3,28(sp)
10000adc:	8fb20018 	lw	s2,24(sp)
10000ae0:	8fb10014 	lw	s1,20(sp)
10000ae4:	8fb00010 	lw	s0,16(sp)
10000ae8:	03e00008 	jr	ra
10000aec:	27bd0028 	addiu	sp,sp,40
10000af0:	00008825 	move	s1,zero
10000af4:	30e20002 	andi	v0,a3,0x2
10000af8:	1440ffc1 	bnez	v0,10000a00 <prints+0x64>
10000afc:	02718823 	subu	s1,s3,s1
10000b00:	30e70001 	andi	a3,a3,0x1
10000b04:	24140020 	li	s4,32
10000b08:	10e0ffc1 	beqz	a3,10000a10 <prints+0x74>
10000b0c:	02209825 	move	s3,s1
10000b10:	1080ffdf 	beqz	a0,10000a90 <prints+0xf4>
10000b14:	00008825 	move	s1,zero
10000b18:	1600ffd1 	bnez	s0,10000a60 <prints+0xc4>
10000b1c:	00000000 	nop
10000b20:	0c0000bb 	jal	100002ec <putchar>
10000b24:	26520001 	addiu	s2,s2,1
10000b28:	080002a0 	j	10000a80 <prints+0xe4>
10000b2c:	00000000 	nop
10000b30:	24140020 	li	s4,32
10000b34:	1480ffc8 	bnez	a0,10000a58 <prints+0xbc>
10000b38:	00008825 	move	s1,zero
10000b3c:	080002b3 	j	10000acc <prints+0x130>
10000b40:	00000000 	nop
10000b44:	0c0000bb 	jal	100002ec <putchar>
10000b48:	02802025 	move	a0,s4
10000b4c:	080002b0 	j	10000ac0 <prints+0x124>
10000b50:	2652ffff 	addiu	s2,s2,-1
10000b54:	0c0000bb 	jal	100002ec <putchar>
10000b58:	02802025 	move	a0,s4
10000b5c:	08000290 	j	10000a40 <prints+0xa4>
10000b60:	2673ffff 	addiu	s3,s3,-1

10000b64 <printi>:
10000b64:	27bdffb8 	addiu	sp,sp,-72
10000b68:	afbf0044 	sw	ra,68(sp)
10000b6c:	afb10040 	sw	s1,64(sp)
10000b70:	10a00048 	beqz	a1,10000c94 <printi+0x130>
10000b74:	afb0003c 	sw	s0,60(sp)
10000b78:	00808825 	move	s1,a0
10000b7c:	14e0001f 	bnez	a3,10000bfc <printi+0x98>
10000b80:	00a01025 	move	v0,a1
10000b84:	a3a0002d 	sb	zero,45(sp)
10000b88:	10a0004e 	beqz	a1,10000cc4 <printi+0x160>
10000b8c:	00002025 	move	a0,zero
10000b90:	8fa80060 	lw	t0,96(sp)
10000b94:	27a5002d 	addiu	a1,sp,45
10000b98:	2508ffc6 	addiu	t0,t0,-58
10000b9c:	0046001b 	divu	zero,v0,a2
10000ba0:	00001810 	mfhi	v1
10000ba4:	2867000a 	slti	a3,v1,10
10000ba8:	00000000 	nop
10000bac:	0046001b 	divu	zero,v0,a2
10000bb0:	00001012 	mflo	v0
10000bb4:	14e00002 	bnez	a3,10000bc0 <printi+0x5c>
10000bb8:	24a5ffff 	addiu	a1,a1,-1
10000bbc:	00681821 	addu	v1,v1,t0
10000bc0:	24630030 	addiu	v1,v1,48
10000bc4:	1440fff5 	bnez	v0,10000b9c <printi+0x38>
10000bc8:	a0a30000 	sb	v1,0(a1)
10000bcc:	14800016 	bnez	a0,10000c28 <printi+0xc4>
10000bd0:	00008025 	move	s0,zero
10000bd4:	8fa60058 	lw	a2,88(sp)
10000bd8:	8fa7005c 	lw	a3,92(sp)
10000bdc:	0c000267 	jal	1000099c <prints>
10000be0:	02202025 	move	a0,s1
10000be4:	8fbf0044 	lw	ra,68(sp)
10000be8:	00501021 	addu	v0,v0,s0
10000bec:	8fb10040 	lw	s1,64(sp)
10000bf0:	8fb0003c 	lw	s0,60(sp)
10000bf4:	03e00008 	jr	ra
10000bf8:	27bd0048 	addiu	sp,sp,72
10000bfc:	2403000a 	li	v1,10
10000c00:	14c3ffe0 	bne	a2,v1,10000b84 <printi+0x20>
10000c04:	00000000 	nop
10000c08:	04a1ffde 	bgez	a1,10000b84 <printi+0x20>
10000c0c:	00000000 	nop
10000c10:	00051023 	negu	v0,a1
10000c14:	10400003 	beqz	v0,10000c24 <printi+0xc0>
10000c18:	a3a0002d 	sb	zero,45(sp)
10000c1c:	080002e4 	j	10000b90 <printi+0x2c>
10000c20:	24040001 	li	a0,1
10000c24:	27a5002d 	addiu	a1,sp,45
10000c28:	8fa20058 	lw	v0,88(sp)
10000c2c:	00000000 	nop
10000c30:	10400014 	beqz	v0,10000c84 <printi+0x120>
10000c34:	2402002d 	li	v0,45
10000c38:	8fa3005c 	lw	v1,92(sp)
10000c3c:	00000000 	nop
10000c40:	30620002 	andi	v0,v1,0x2
10000c44:	1040000f 	beqz	v0,10000c84 <printi+0x120>
10000c48:	2402002d 	li	v0,45
10000c4c:	12200020 	beqz	s1,10000cd0 <printi+0x16c>
10000c50:	2403002d 	li	v1,45
10000c54:	8e220000 	lw	v0,0(s1)
10000c58:	00000000 	nop
10000c5c:	a0430000 	sb	v1,0(v0)
10000c60:	8e220000 	lw	v0,0(s1)
10000c64:	00000000 	nop
10000c68:	24420001 	addiu	v0,v0,1
10000c6c:	ae220000 	sw	v0,0(s1)
10000c70:	8fa20058 	lw	v0,88(sp)
10000c74:	24100001 	li	s0,1
10000c78:	2442ffff 	addiu	v0,v0,-1
10000c7c:	080002f5 	j	10000bd4 <printi+0x70>
10000c80:	afa20058 	sw	v0,88(sp)
10000c84:	a0a2ffff 	sb	v0,-1(a1)
10000c88:	00008025 	move	s0,zero
10000c8c:	080002f5 	j	10000bd4 <printi+0x70>
10000c90:	24a5ffff 	addiu	a1,a1,-1
10000c94:	8fa60058 	lw	a2,88(sp)
10000c98:	8fa7005c 	lw	a3,92(sp)
10000c9c:	27a50010 	addiu	a1,sp,16
10000ca0:	24020030 	li	v0,48
10000ca4:	a3a20010 	sb	v0,16(sp)
10000ca8:	0c000267 	jal	1000099c <prints>
10000cac:	a3a00011 	sb	zero,17(sp)
10000cb0:	8fbf0044 	lw	ra,68(sp)
10000cb4:	8fb10040 	lw	s1,64(sp)
10000cb8:	8fb0003c 	lw	s0,60(sp)
10000cbc:	03e00008 	jr	ra
10000cc0:	27bd0048 	addiu	sp,sp,72
10000cc4:	00008025 	move	s0,zero
10000cc8:	080002f5 	j	10000bd4 <printi+0x70>
10000ccc:	27a5002d 	addiu	a1,sp,45
10000cd0:	2404002d 	li	a0,45
10000cd4:	0c0000bb 	jal	100002ec <putchar>
10000cd8:	afa50030 	sw	a1,48(sp)
10000cdc:	8fa50030 	lw	a1,48(sp)
10000ce0:	0800031c 	j	10000c70 <printi+0x10c>
10000ce4:	00000000 	nop

10000ce8 <print>:
10000ce8:	27bdffb8 	addiu	sp,sp,-72
10000cec:	afb4003c 	sw	s4,60(sp)
10000cf0:	afb30038 	sw	s3,56(sp)
10000cf4:	afbf0044 	sw	ra,68(sp)
10000cf8:	afb50040 	sw	s5,64(sp)
10000cfc:	afb20034 	sw	s2,52(sp)
10000d00:	afb10030 	sw	s1,48(sp)
10000d04:	afb0002c 	sw	s0,44(sp)
10000d08:	80a20000 	lb	v0,0(a1)
10000d0c:	00809825 	move	s3,a0
10000d10:	afa60050 	sw	a2,80(sp)
10000d14:	10400016 	beqz	v0,10000d70 <print+0x88>
10000d18:	0000a025 	move	s4,zero
10000d1c:	3c111000 	lui	s1,0x1000
10000d20:	24150025 	li	s5,37
10000d24:	263145f4 	addiu	s1,s1,17908
10000d28:	3c121000 	lui	s2,0x1000
10000d2c:	1055001f 	beq	v0,s5,10000dac <print+0xc4>
10000d30:	00000000 	nop
10000d34:	80a40000 	lb	a0,0(a1)
10000d38:	1260004a 	beqz	s3,10000e64 <print+0x17c>
10000d3c:	00a08025 	move	s0,a1
10000d40:	8e620000 	lw	v0,0(s3)
10000d44:	00000000 	nop
10000d48:	a0440000 	sb	a0,0(v0)
10000d4c:	8e620000 	lw	v0,0(s3)
10000d50:	00000000 	nop
10000d54:	24420001 	addiu	v0,v0,1
10000d58:	ae620000 	sw	v0,0(s3)
10000d5c:	26940001 	addiu	s4,s4,1
10000d60:	82020001 	lb	v0,1(s0)
10000d64:	00000000 	nop
10000d68:	1440fff0 	bnez	v0,10000d2c <print+0x44>
10000d6c:	26050001 	addiu	a1,s0,1
10000d70:	12600004 	beqz	s3,10000d84 <print+0x9c>
10000d74:	00000000 	nop
10000d78:	8e620000 	lw	v0,0(s3)
10000d7c:	00000000 	nop
10000d80:	a0400000 	sb	zero,0(v0)
10000d84:	8fbf0044 	lw	ra,68(sp)
10000d88:	02801025 	move	v0,s4
10000d8c:	8fb50040 	lw	s5,64(sp)
10000d90:	8fb4003c 	lw	s4,60(sp)
10000d94:	8fb30038 	lw	s3,56(sp)
10000d98:	8fb20034 	lw	s2,52(sp)
10000d9c:	8fb10030 	lw	s1,48(sp)
10000da0:	8fb0002c 	lw	s0,44(sp)
10000da4:	03e00008 	jr	ra
10000da8:	27bd0048 	addiu	sp,sp,72
10000dac:	80a30001 	lb	v1,1(a1)
10000db0:	00000000 	nop
10000db4:	1060ffee 	beqz	v1,10000d70 <print+0x88>
10000db8:	24b00001 	addiu	s0,a1,1
10000dbc:	10750027 	beq	v1,s5,10000e5c <print+0x174>
10000dc0:	2402002d 	li	v0,45
10000dc4:	1062002b 	beq	v1,v0,10000e74 <print+0x18c>
10000dc8:	00000000 	nop
10000dcc:	00003825 	move	a3,zero
10000dd0:	24020030 	li	v0,48
10000dd4:	14620007 	bne	v1,v0,10000df4 <print+0x10c>
10000dd8:	2468ffd0 	addiu	t0,v1,-48
10000ddc:	26100001 	addiu	s0,s0,1
10000de0:	82030000 	lb	v1,0(s0)
10000de4:	00000000 	nop
10000de8:	1062fffc 	beq	v1,v0,10000ddc <print+0xf4>
10000dec:	34e70002 	ori	a3,a3,0x2
10000df0:	2468ffd0 	addiu	t0,v1,-48
10000df4:	310200ff 	andi	v0,t0,0xff
10000df8:	2c42000a 	sltiu	v0,v0,10
10000dfc:	1040000d 	beqz	v0,10000e34 <print+0x14c>
10000e00:	00003025 	move	a2,zero
10000e04:	26100001 	addiu	s0,s0,1
10000e08:	00062840 	sll	a1,a2,0x1
10000e0c:	82030000 	lb	v1,0(s0)
10000e10:	000630c0 	sll	a2,a2,0x3
10000e14:	00a63021 	addu	a2,a1,a2
10000e18:	01063021 	addu	a2,t0,a2
10000e1c:	2468ffd0 	addiu	t0,v1,-48
10000e20:	310500ff 	andi	a1,t0,0xff
10000e24:	2ca5000a 	sltiu	a1,a1,10
10000e28:	14a0fff7 	bnez	a1,10000e08 <print+0x120>
10000e2c:	26100001 	addiu	s0,s0,1
10000e30:	2610ffff 	addiu	s0,s0,-1
10000e34:	2463ffa8 	addiu	v1,v1,-88
10000e38:	306300ff 	andi	v1,v1,0xff
10000e3c:	2c620021 	sltiu	v0,v1,33
10000e40:	1040ffc7 	beqz	v0,10000d60 <print+0x78>
10000e44:	00031880 	sll	v1,v1,0x2
10000e48:	02231821 	addu	v1,s1,v1
10000e4c:	8c620000 	lw	v0,0(v1)
10000e50:	00000000 	nop
10000e54:	00400008 	jr	v0
10000e58:	00000000 	nop
10000e5c:	1660ffb8 	bnez	s3,10000d40 <print+0x58>
10000e60:	24040025 	li	a0,37
10000e64:	0c0000bb 	jal	100002ec <putchar>
10000e68:	26940001 	addiu	s4,s4,1
10000e6c:	08000358 	j	10000d60 <print+0x78>
10000e70:	00000000 	nop
10000e74:	24b00002 	addiu	s0,a1,2
10000e78:	80a30002 	lb	v1,2(a1)
10000e7c:	08000374 	j	10000dd0 <print+0xe8>
10000e80:	24070001 	li	a3,1
10000e84:	8fa20050 	lw	v0,80(sp)
10000e88:	24030061 	li	v1,97
10000e8c:	8c450000 	lw	a1,0(v0)
10000e90:	24420004 	addiu	v0,v0,4
10000e94:	afa60010 	sw	a2,16(sp)
10000e98:	afa70014 	sw	a3,20(sp)
10000e9c:	afa30018 	sw	v1,24(sp)
10000ea0:	02602025 	move	a0,s3
10000ea4:	24060010 	li	a2,16
10000ea8:	00003825 	move	a3,zero
10000eac:	0c0002d9 	jal	10000b64 <printi>
10000eb0:	afa20050 	sw	v0,80(sp)
10000eb4:	08000358 	j	10000d60 <print+0x78>
10000eb8:	0282a021 	addu	s4,s4,v0
10000ebc:	8fa20050 	lw	v0,80(sp)
10000ec0:	24030061 	li	v1,97
10000ec4:	8c450000 	lw	a1,0(v0)
10000ec8:	02602025 	move	a0,s3
10000ecc:	24420004 	addiu	v0,v0,4
10000ed0:	afa60010 	sw	a2,16(sp)
10000ed4:	afa70014 	sw	a3,20(sp)
10000ed8:	afa30018 	sw	v1,24(sp)
10000edc:	2406000a 	li	a2,10
10000ee0:	00003825 	move	a3,zero
10000ee4:	0c0002d9 	jal	10000b64 <printi>
10000ee8:	afa20050 	sw	v0,80(sp)
10000eec:	08000358 	j	10000d60 <print+0x78>
10000ef0:	0282a021 	addu	s4,s4,v0
10000ef4:	8fa20050 	lw	v0,80(sp)
10000ef8:	00000000 	nop
10000efc:	8c450000 	lw	a1,0(v0)
10000f00:	24420004 	addiu	v0,v0,4
10000f04:	10a00025 	beqz	a1,10000f9c <print+0x2b4>
10000f08:	afa20050 	sw	v0,80(sp)
10000f0c:	0c000267 	jal	1000099c <prints>
10000f10:	02602025 	move	a0,s3
10000f14:	08000358 	j	10000d60 <print+0x78>
10000f18:	0282a021 	addu	s4,s4,v0
10000f1c:	8fa20050 	lw	v0,80(sp)
10000f20:	24030061 	li	v1,97
10000f24:	8c450000 	lw	a1,0(v0)
10000f28:	02602025 	move	a0,s3
10000f2c:	24420004 	addiu	v0,v0,4
10000f30:	afa60010 	sw	a2,16(sp)
10000f34:	afa70014 	sw	a3,20(sp)
10000f38:	afa30018 	sw	v1,24(sp)
10000f3c:	2406000a 	li	a2,10
10000f40:	24070001 	li	a3,1
10000f44:	0c0002d9 	jal	10000b64 <printi>
10000f48:	afa20050 	sw	v0,80(sp)
10000f4c:	08000358 	j	10000d60 <print+0x78>
10000f50:	0282a021 	addu	s4,s4,v0
10000f54:	8fa20050 	lw	v0,80(sp)
10000f58:	02602025 	move	a0,s3
10000f5c:	8c430000 	lw	v1,0(v0)
10000f60:	27a50020 	addiu	a1,sp,32
10000f64:	24420004 	addiu	v0,v0,4
10000f68:	afa20050 	sw	v0,80(sp)
10000f6c:	a3a30020 	sb	v1,32(sp)
10000f70:	0c000267 	jal	1000099c <prints>
10000f74:	a3a00021 	sb	zero,33(sp)
10000f78:	08000358 	j	10000d60 <print+0x78>
10000f7c:	0282a021 	addu	s4,s4,v0
10000f80:	8fa20050 	lw	v0,80(sp)
10000f84:	24030041 	li	v1,65
10000f88:	8c450000 	lw	a1,0(v0)
10000f8c:	24420004 	addiu	v0,v0,4
10000f90:	afa60010 	sw	a2,16(sp)
10000f94:	080003a7 	j	10000e9c <print+0x1b4>
10000f98:	afa70014 	sw	a3,20(sp)
10000f9c:	080003c3 	j	10000f0c <print+0x224>
10000fa0:	26454590 	addiu	a1,s2,17808

10000fa4 <__udivmoddi4.part.0>:
10000fa4:	27bdfff8 	addiu	sp,sp,-8
10000fa8:	00004025 	move	t0,zero
10000fac:	afb10004 	sw	s1,4(sp)
10000fb0:	afb00000 	sw	s0,0(sp)
10000fb4:	8fb80018 	lw	t8,24(sp)
10000fb8:	04c0000d 	bltz	a2,10000ff0 <__udivmoddi4.part.0+0x4c>
10000fbc:	24020001 	li	v0,1
10000fc0:	00074fc2 	srl	t1,a3,0x1f
10000fc4:	00063040 	sll	a2,a2,0x1
10000fc8:	00021fc2 	srl	v1,v0,0x1f
10000fcc:	00084040 	sll	t0,t0,0x1
10000fd0:	01263025 	or	a2,t1,a2
10000fd4:	00073840 	sll	a3,a3,0x1
10000fd8:	00684025 	or	t0,v1,t0
10000fdc:	04c1fff8 	bgez	a2,10000fc0 <__udivmoddi4.part.0+0x1c>
10000fe0:	00021040 	sll	v0,v0,0x1
10000fe4:	01021825 	or	v1,t0,v0
10000fe8:	10600026 	beqz	v1,10001084 <__udivmoddi4.part.0+0xe0>
10000fec:	00007825 	move	t7,zero
10000ff0:	00007825 	move	t7,zero
10000ff4:	00001825 	move	v1,zero
10000ff8:	0086482b 	sltu	t1,a0,a2
10000ffc:	00086fc0 	sll	t5,t0,0x1f
10001000:	00026042 	srl	t4,v0,0x1
10001004:	00065fc0 	sll	t3,a2,0x1f
10001008:	1520000f 	bnez	t1,10001048 <__udivmoddi4.part.0+0xa4>
1000100c:	00075042 	srl	t2,a3,0x1
10001010:	00a77023 	subu	t6,a1,a3
10001014:	00624821 	addu	t1,v1,v0
10001018:	00ae802b 	sltu	s0,a1,t6
1000101c:	00868823 	subu	s1,a0,a2
10001020:	0123c82b 	sltu	t9,t1,v1
10001024:	01e81021 	addu	v0,t7,t0
10001028:	14c40003 	bne	a2,a0,10001038 <__udivmoddi4.part.0+0x94>
1000102c:	00a7382b 	sltu	a3,a1,a3
10001030:	14e00005 	bnez	a3,10001048 <__udivmoddi4.part.0+0xa4>
10001034:	00000000 	nop
10001038:	02302023 	subu	a0,s1,s0
1000103c:	01c02825 	move	a1,t6
10001040:	03227821 	addu	t7,t9,v0
10001044:	01201825 	move	v1,t1
10001048:	00084042 	srl	t0,t0,0x1
1000104c:	01ac1025 	or	v0,t5,t4
10001050:	01024825 	or	t1,t0,v0
10001054:	00063042 	srl	a2,a2,0x1
10001058:	1520ffe7 	bnez	t1,10000ff8 <__udivmoddi4.part.0+0x54>
1000105c:	016a3825 	or	a3,t3,t2
10001060:	13000003 	beqz	t8,10001070 <__udivmoddi4.part.0+0xcc>
10001064:	00000000 	nop
10001068:	af040000 	sw	a0,0(t8)
1000106c:	af050004 	sw	a1,4(t8)
10001070:	8fb10004 	lw	s1,4(sp)
10001074:	8fb00000 	lw	s0,0(sp)
10001078:	01e01025 	move	v0,t7
1000107c:	03e00008 	jr	ra
10001080:	27bd0008 	addiu	sp,sp,8
10001084:	08000418 	j	10001060 <__udivmoddi4.part.0+0xbc>
10001088:	00001825 	move	v1,zero

1000108c <strncpy>:
1000108c:	18c00010 	blez	a2,100010d0 <strncpy+0x44>
10001090:	00801025 	move	v0,a0
10001094:	80a40000 	lb	a0,0(a1)
10001098:	24430001 	addiu	v1,v0,1
1000109c:	a0440000 	sb	a0,0(v0)
100010a0:	14800007 	bnez	a0,100010c0 <strncpy+0x34>
100010a4:	00003825 	move	a3,zero
100010a8:	08000440 	j	10001100 <strncpy+0x74>
100010ac:	24070001 	li	a3,1
100010b0:	81080000 	lb	t0,0(t0)
100010b4:	00000000 	nop
100010b8:	11000007 	beqz	t0,100010d8 <strncpy+0x4c>
100010bc:	a068ffff 	sb	t0,-1(v1)
100010c0:	24e70001 	addiu	a3,a3,1
100010c4:	00a74021 	addu	t0,a1,a3
100010c8:	14e6fff9 	bne	a3,a2,100010b0 <strncpy+0x24>
100010cc:	24630001 	addiu	v1,v1,1
100010d0:	03e00008 	jr	ra
100010d4:	00000000 	nop
100010d8:	24e70001 	addiu	a3,a3,1
100010dc:	00e6202a 	slt	a0,a3,a2
100010e0:	1080fffb 	beqz	a0,100010d0 <strncpy+0x44>
100010e4:	00c73823 	subu	a3,a2,a3
100010e8:	00673821 	addu	a3,v1,a3
100010ec:	24630001 	addiu	v1,v1,1
100010f0:	1467fffe 	bne	v1,a3,100010ec <strncpy+0x60>
100010f4:	a060ffff 	sb	zero,-1(v1)
100010f8:	03e00008 	jr	ra
100010fc:	00000000 	nop
10001100:	08000438 	j	100010e0 <strncpy+0x54>
10001104:	00e6202a 	slt	a0,a3,a2

10001108 <memset>:
10001108:	10c00007 	beqz	a2,10001128 <memset+0x20>
1000110c:	00801025 	move	v0,a0
10001110:	30a500ff 	andi	a1,a1,0xff
10001114:	00863021 	addu	a2,a0,a2
10001118:	00801825 	move	v1,a0
1000111c:	24630001 	addiu	v1,v1,1
10001120:	1466fffe 	bne	v1,a2,1000111c <memset+0x14>
10001124:	a065ffff 	sb	a1,-1(v1)
10001128:	03e00008 	jr	ra
1000112c:	00000000 	nop

10001130 <printf>:
10001130:	27bdffe0 	addiu	sp,sp,-32
10001134:	27a20024 	addiu	v0,sp,36
10001138:	00801825 	move	v1,a0
1000113c:	00002025 	move	a0,zero
10001140:	afa50024 	sw	a1,36(sp)
10001144:	afa60028 	sw	a2,40(sp)
10001148:	00602825 	move	a1,v1
1000114c:	00403025 	move	a2,v0
10001150:	afbf001c 	sw	ra,28(sp)
10001154:	afa7002c 	sw	a3,44(sp)
10001158:	0c00033a 	jal	10000ce8 <print>
1000115c:	afa20010 	sw	v0,16(sp)
10001160:	8fbf001c 	lw	ra,28(sp)
10001164:	00000000 	nop
10001168:	03e00008 	jr	ra
1000116c:	27bd0020 	addiu	sp,sp,32

10001170 <malloc>:
10001170:	08000552 	j	10001548 <hf_malloc>
10001174:	00000000 	nop

10001178 <free>:
10001178:	08000537 	j	100014dc <hf_free>
1000117c:	00000000 	nop

10001180 <__udivdi3>:
10001180:	00c71025 	or	v0,a2,a3
10001184:	14400005 	bnez	v0,1000119c <__udivdi3+0x1c>
10001188:	24030001 	li	v1,1
1000118c:	0062001b 	divu	zero,v1,v0
10001190:	00001812 	mflo	v1
10001194:	03e00008 	jr	ra
10001198:	00001025 	move	v0,zero
1000119c:	27bdffe0 	addiu	sp,sp,-32
100011a0:	afa00010 	sw	zero,16(sp)
100011a4:	afbf001c 	sw	ra,28(sp)
100011a8:	0c0003e9 	jal	10000fa4 <__udivmoddi4.part.0>
100011ac:	00000000 	nop
100011b0:	8fbf001c 	lw	ra,28(sp)
100011b4:	00000000 	nop
100011b8:	03e00008 	jr	ra
100011bc:	27bd0020 	addiu	sp,sp,32

100011c0 <idletask>:
100011c0:	3c021009 	lui	v0,0x1009
100011c4:	8c452128 	lw	a1,8488(v0)
100011c8:	3c041000 	lui	a0,0x1000
100011cc:	27bdffe8 	addiu	sp,sp,-24
100011d0:	afbf0014 	sw	ra,20(sp)
100011d4:	0c0001e3 	jal	1000078c <kprintf>
100011d8:	24844678 	addiu	a0,a0,18040
100011dc:	3c041000 	lui	a0,0x1000
100011e0:	0c0001e3 	jal	1000078c <kprintf>
100011e4:	24844698 	addiu	a0,a0,18072
100011e8:	0c000ce8 	jal	100033a0 <hf_schedlock>
100011ec:	00002025 	move	a0,zero
100011f0:	0c000122 	jal	10000488 <_cpu_idle>
100011f4:	00000000 	nop
100011f8:	0c000122 	jal	10000488 <_cpu_idle>
100011fc:	00000000 	nop
10001200:	0800047c 	j	100011f0 <idletask+0x30>
10001204:	00000000 	nop

10001208 <main>:
10001208:	27bdffd0 	addiu	sp,sp,-48
1000120c:	afbf002c 	sw	ra,44(sp)
10001210:	afb30028 	sw	s3,40(sp)
10001214:	afb20024 	sw	s2,36(sp)
10001218:	afb10020 	sw	s1,32(sp)
1000121c:	0c0000bf 	jal	100002fc <_hardware_init>
10001220:	afb0001c 	sw	s0,28(sp)
10001224:	0c000ce8 	jal	100033a0 <hf_schedlock>
10001228:	24040001 	li	a0,1
1000122c:	0c00007b 	jal	100001ec <_interrupt_set>
10001230:	00002025 	move	a0,zero
10001234:	3c041000 	lui	a0,0x1000
10001238:	0c0001e3 	jal	1000078c <kprintf>
1000123c:	248446b8 	addiu	a0,a0,18104
10001240:	3c031000 	lui	v1,0x1000
10001244:	3c02baad 	lui	v0,0xbaad
10001248:	8c644f60 	lw	a0,20320(v1)
1000124c:	3442d00d 	ori	v0,v0,0xd00d
10001250:	1082000b 	beq	a0,v0,10001280 <main+0x78>
10001254:	3c041000 	lui	a0,0x1000
10001258:	0c000978 	jal	100025e0 <panic>
1000125c:	24040001 	li	a0,1
10001260:	8fbf002c 	lw	ra,44(sp)
10001264:	8fb30028 	lw	s3,40(sp)
10001268:	8fb20024 	lw	s2,36(sp)
1000126c:	8fb10020 	lw	s1,32(sp)
10001270:	8fb0001c 	lw	s0,28(sp)
10001274:	00001025 	move	v0,zero
10001278:	03e00008 	jr	ra
1000127c:	27bd0030 	addiu	sp,sp,48
10001280:	248446cc 	addiu	a0,a0,18124
10001284:	0c0001e3 	jal	1000078c <kprintf>
10001288:	ac604f60 	sw	zero,20320(v1)
1000128c:	3c061000 	lui	a2,0x1000
10001290:	3c071000 	lui	a3,0x1000
10001294:	3c051000 	lui	a1,0x1000
10001298:	3c041000 	lui	a0,0x1000
1000129c:	24c64730 	addiu	a2,a2,18224
100012a0:	24e7473c 	addiu	a3,a3,18236
100012a4:	24a54724 	addiu	a1,a1,18212
100012a8:	0c0001e3 	jal	1000078c <kprintf>
100012ac:	2484470c 	addiu	a0,a0,18188
100012b0:	3c041000 	lui	a0,0x1000
100012b4:	0c0001e3 	jal	1000078c <kprintf>
100012b8:	24844748 	addiu	a0,a0,18248
100012bc:	3c041000 	lui	a0,0x1000
100012c0:	0c0001e3 	jal	1000078c <kprintf>
100012c4:	24844780 	addiu	a0,a0,18304
100012c8:	3c041000 	lui	a0,0x1000
100012cc:	3c051000 	lui	a1,0x1000
100012d0:	248447c0 	addiu	a0,a0,18368
100012d4:	0c0001e3 	jal	1000078c <kprintf>
100012d8:	24a547d4 	addiu	a1,a1,18388
100012dc:	3c041000 	lui	a0,0x1000
100012e0:	248447e0 	addiu	a0,a0,18400
100012e4:	0c0001e3 	jal	1000078c <kprintf>
100012e8:	240561a8 	li	a1,25000
100012ec:	3c041000 	lui	a0,0x1000
100012f0:	248447f8 	addiu	a0,a0,18424
100012f4:	0c0001e3 	jal	1000078c <kprintf>
100012f8:	240528f0 	li	a1,10480
100012fc:	3c041000 	lui	a0,0x1000
10001300:	3c050007 	lui	a1,0x7
10001304:	24844810 	addiu	a0,a0,18448
10001308:	0c0001e3 	jal	1000078c <kprintf>
1000130c:	34a5a120 	ori	a1,a1,0xa120
10001310:	3c041000 	lui	a0,0x1000
10001314:	2484482c 	addiu	a0,a0,18476
10001318:	2405001e 	li	a1,30
1000131c:	3c101001 	lui	s0,0x1001
10001320:	0c0001e3 	jal	1000078c <kprintf>
10001324:	3c121001 	lui	s2,0x1001
10001328:	0c0000ce 	jal	10000338 <_vm_init>
1000132c:	26106d5c 	addiu	s0,s0,27996
10001330:	26527f2c 	addiu	s2,s2,32556
10001334:	3c111009 	lui	s1,0x1009
10001338:	2413ffff 	li	s3,-1
1000133c:	26040002 	addiu	a0,s0,2
10001340:	a6130000 	sh	s3,0(s0)
10001344:	00002825 	move	a1,zero
10001348:	24060014 	li	a2,20
1000134c:	0c000442 	jal	10001108 <memset>
10001350:	ae30211c 	sw	s0,8476(s1)
10001354:	8e22211c 	lw	v0,8476(s1)
10001358:	26100098 	addiu	s0,s0,152
1000135c:	a0400016 	sb	zero,22(v0)
10001360:	a0400017 	sb	zero,23(v0)
10001364:	a0400018 	sb	zero,24(v0)
10001368:	ac40001c 	sw	zero,28(v0)
1000136c:	ac400020 	sw	zero,32(v0)
10001370:	ac400024 	sw	zero,36(v0)
10001374:	ac400028 	sw	zero,40(v0)
10001378:	a440002c 	sh	zero,44(v0)
1000137c:	a440002e 	sh	zero,46(v0)
10001380:	a4400030 	sh	zero,48(v0)
10001384:	a4400032 	sh	zero,50(v0)
10001388:	a4400034 	sh	zero,52(v0)
1000138c:	ac400088 	sw	zero,136(v0)
10001390:	ac40008c 	sw	zero,140(v0)
10001394:	ac400090 	sw	zero,144(v0)
10001398:	1612ffe8 	bne	s0,s2,1000133c <main+0x134>
1000139c:	ac400094 	sw	zero,148(v0)
100013a0:	3c031009 	lui	v1,0x1009
100013a4:	a4602124 	sh	zero,8484(v1)
100013a8:	3c031009 	lui	v1,0x1009
100013ac:	a4602134 	sh	zero,8500(v1)
100013b0:	3c031000 	lui	v1,0x1000
100013b4:	3c051009 	lui	a1,0x1009
100013b8:	24633a40 	addiu	v1,v1,14912
100013bc:	aca3204c 	sw	v1,8268(a1)
100013c0:	3c031000 	lui	v1,0x1000
100013c4:	24a2204c 	addiu	v0,a1,8268
100013c8:	246338dc 	addiu	v1,v1,14556
100013cc:	3c101009 	lui	s0,0x1009
100013d0:	2404001e 	li	a0,30
100013d4:	ac430004 	sw	v1,4(v0)
100013d8:	a6002118 	sh	zero,8472(s0)
100013dc:	ac400008 	sw	zero,8(v0)
100013e0:	ac40000c 	sw	zero,12(v0)
100013e4:	ac400010 	sw	zero,16(v0)
100013e8:	0c000cf0 	jal	100033c0 <hf_queue_create>
100013ec:	ac400014 	sw	zero,20(v0)
100013f0:	3c031009 	lui	v1,0x1009
100013f4:	10400035 	beqz	v0,100014cc <main+0x2c4>
100013f8:	ac62212c 	sw	v0,8492(v1)
100013fc:	0c000cf0 	jal	100033c0 <hf_queue_create>
10001400:	2404001e 	li	a0,30
10001404:	3c031009 	lui	v1,0x1009
10001408:	1040002c 	beqz	v0,100014bc <main+0x2b4>
1000140c:	ac622138 	sw	v0,8504(v1)
10001410:	0c000cf0 	jal	100033c0 <hf_queue_create>
10001414:	2404001e 	li	a0,30
10001418:	3c031009 	lui	v1,0x1009
1000141c:	10400023 	beqz	v0,100014ac <main+0x2a4>
10001420:	ac622130 	sw	v0,8496(v1)
10001424:	0c0000da 	jal	10000368 <_sched_init>
10001428:	00000000 	nop
1000142c:	0c0000f2 	jal	100003c8 <_irq_init>
10001430:	00000000 	nop
10001434:	0c0000dd 	jal	10000374 <_timer_init>
10001438:	00000000 	nop
1000143c:	0c00014c 	jal	10000530 <_timer_reset>
10001440:	00000000 	nop
10001444:	3c021000 	lui	v0,0x1000
10001448:	24424eec 	addiu	v0,v0,20204
1000144c:	afa20010 	sw	v0,16(sp)
10001450:	3c041000 	lui	a0,0x1000
10001454:	24020400 	li	v0,1024
10001458:	00003825 	move	a3,zero
1000145c:	248411c0 	addiu	a0,a0,4544
10001460:	00002825 	move	a1,zero
10001464:	00003025 	move	a2,zero
10001468:	0c000f28 	jal	10003ca0 <hf_spawn>
1000146c:	afa20014 	sw	v0,20(sp)
10001470:	0c0000f5 	jal	100003d4 <_device_init>
10001474:	00000000 	nop
10001478:	0c0000fd 	jal	100003f4 <_task_init>
1000147c:	00000000 	nop
10001480:	0c000ca6 	jal	10003298 <app_main>
10001484:	00000000 	nop
10001488:	8e24211c 	lw	a0,8476(s1)
1000148c:	96062118 	lhu	a2,8472(s0)
10001490:	24840038 	addiu	a0,a0,56
10001494:	0c0000ab 	jal	100002ac <_restoreexec>
10001498:	24050001 	li	a1,1
1000149c:	0c000978 	jal	100025e0 <panic>
100014a0:	00002025 	move	a0,zero
100014a4:	08000498 	j	10001260 <main+0x58>
100014a8:	00000000 	nop
100014ac:	0c000978 	jal	100025e0 <panic>
100014b0:	24040004 	li	a0,4
100014b4:	08000509 	j	10001424 <main+0x21c>
100014b8:	00000000 	nop
100014bc:	0c000978 	jal	100025e0 <panic>
100014c0:	24040004 	li	a0,4
100014c4:	08000504 	j	10001410 <main+0x208>
100014c8:	00000000 	nop
100014cc:	0c000978 	jal	100025e0 <panic>
100014d0:	24040004 	li	a0,4
100014d4:	080004ff 	j	100013fc <main+0x1f4>
100014d8:	00000000 	nop

100014dc <hf_free>:
100014dc:	27bdffe0 	addiu	sp,sp,-32
100014e0:	afb00014 	sw	s0,20(sp)
100014e4:	3c101001 	lui	s0,0x1001
100014e8:	afb10018 	sw	s1,24(sp)
100014ec:	00808825 	move	s1,a0
100014f0:	afbf001c 	sw	ra,28(sp)
100014f4:	0c0005bd 	jal	100016f4 <hf_mtxlock>
100014f8:	26046d58 	addiu	a0,s0,27992
100014fc:	8e23fffc 	lw	v1,-4(s1)
10001500:	3c051009 	lui	a1,0x1009
10001504:	8ca22128 	lw	v0,8488(a1)
10001508:	2404fffe 	li	a0,-2
1000150c:	00641824 	and	v1,v1,a0
10001510:	3c041009 	lui	a0,0x1009
10001514:	8c862140 	lw	a2,8512(a0)
10001518:	8fbf001c 	lw	ra,28(sp)
1000151c:	ae23fffc 	sw	v1,-4(s1)
10001520:	24420008 	addiu	v0,v0,8
10001524:	8fb10018 	lw	s1,24(sp)
10001528:	26046d58 	addiu	a0,s0,27992
1000152c:	8fb00014 	lw	s0,20(sp)
10001530:	00431021 	addu	v0,v0,v1
10001534:	3c031009 	lui	v1,0x1009
10001538:	27bd0020 	addiu	sp,sp,32
1000153c:	ac66213c 	sw	a2,8508(v1)
10001540:	080005d6 	j	10001758 <hf_mtxunlock>
10001544:	aca22128 	sw	v0,8488(a1)

10001548 <hf_malloc>:
10001548:	27bdffe0 	addiu	sp,sp,-32
1000154c:	afb20018 	sw	s2,24(sp)
10001550:	3c121001 	lui	s2,0x1001
10001554:	24820003 	addiu	v0,a0,3
10001558:	afb10014 	sw	s1,20(sp)
1000155c:	26446d58 	addiu	a0,s2,27992
10001560:	2411fffc 	li	s1,-4
10001564:	afb00010 	sw	s0,16(sp)
10001568:	afbf001c 	sw	ra,28(sp)
1000156c:	0c0005bd 	jal	100016f4 <hf_mtxlock>
10001570:	00518824 	and	s1,v0,s1
10001574:	3c041009 	lui	a0,0x1009
10001578:	8c85213c 	lw	a1,8508(a0)
1000157c:	2408fff8 	li	t0,-8
10001580:	00a08025 	move	s0,a1
10001584:	26270008 	addiu	a3,s1,8
10001588:	8ca30000 	lw	v1,0(a1)
1000158c:	00000000 	nop
10001590:	10600037 	beqz	v1,10001670 <hf_malloc+0x128>
10001594:	00000000 	nop
10001598:	8ca20004 	lw	v0,4(a1)
1000159c:	00000000 	nop
100015a0:	30420001 	andi	v0,v0,0x1
100015a4:	14400005 	bnez	v0,100015bc <hf_malloc+0x74>
100015a8:	00000000 	nop
100015ac:	08000574 	j	100015d0 <hf_malloc+0x88>
100015b0:	00a01825 	move	v1,a1
100015b4:	8c630000 	lw	v1,0(v1)
100015b8:	00000000 	nop
100015bc:	8c620004 	lw	v0,4(v1)
100015c0:	00000000 	nop
100015c4:	30420001 	andi	v0,v0,0x1
100015c8:	1440fffa 	bnez	v0,100015b4 <hf_malloc+0x6c>
100015cc:	00608025 	move	s0,v1
100015d0:	1440000b 	bnez	v0,10001600 <hf_malloc+0xb8>
100015d4:	01101023 	subu	v0,t0,s0
100015d8:	8c650000 	lw	a1,0(v1)
100015dc:	00000000 	nop
100015e0:	10a00007 	beqz	a1,10001600 <hf_malloc+0xb8>
100015e4:	01101023 	subu	v0,t0,s0
100015e8:	8ca20004 	lw	v0,4(a1)
100015ec:	00000000 	nop
100015f0:	30420001 	andi	v0,v0,0x1
100015f4:	1040fff8 	beqz	v0,100015d8 <hf_malloc+0x90>
100015f8:	00a01825 	move	v1,a1
100015fc:	01101023 	subu	v0,t0,s0
10001600:	00621021 	addu	v0,v1,v0
10001604:	0047302b 	sltu	a2,v0,a3
10001608:	00602825 	move	a1,v1
1000160c:	ae020004 	sw	v0,4(s0)
10001610:	14c0ffdd 	bnez	a2,10001588 <hf_malloc+0x40>
10001614:	ae030000 	sw	v1,0(s0)
10001618:	3c051009 	lui	a1,0x1009
1000161c:	8ca22128 	lw	v0,8488(a1)
10001620:	02073821 	addu	a3,s0,a3
10001624:	2442fff8 	addiu	v0,v0,-8
10001628:	36260001 	ori	a2,s1,0x1
1000162c:	00518823 	subu	s1,v0,s1
10001630:	2402fff8 	li	v0,-8
10001634:	ac90213c 	sw	s0,8508(a0)
10001638:	ae060004 	sw	a2,4(s0)
1000163c:	ae070000 	sw	a3,0(s0)
10001640:	26446d58 	addiu	a0,s2,27992
10001644:	ace30000 	sw	v1,0(a3)
10001648:	ace20004 	sw	v0,4(a3)
1000164c:	0c0005d6 	jal	10001758 <hf_mtxunlock>
10001650:	acb12128 	sw	s1,8488(a1)
10001654:	8fbf001c 	lw	ra,28(sp)
10001658:	26020008 	addiu	v0,s0,8
1000165c:	8fb20018 	lw	s2,24(sp)
10001660:	8fb10014 	lw	s1,20(sp)
10001664:	8fb00010 	lw	s0,16(sp)
10001668:	03e00008 	jr	ra
1000166c:	27bd0020 	addiu	sp,sp,32
10001670:	0c0005d6 	jal	10001758 <hf_mtxunlock>
10001674:	26446d58 	addiu	a0,s2,27992
10001678:	8fbf001c 	lw	ra,28(sp)
1000167c:	8fb20018 	lw	s2,24(sp)
10001680:	8fb10014 	lw	s1,20(sp)
10001684:	8fb00010 	lw	s0,16(sp)
10001688:	00001025 	move	v0,zero
1000168c:	03e00008 	jr	ra
10001690:	27bd0020 	addiu	sp,sp,32

10001694 <heapinit>:
10001694:	00801025 	move	v0,a0
10001698:	24a30003 	addiu	v1,a1,3
1000169c:	2404fffc 	li	a0,-4
100016a0:	00641824 	and	v1,v1,a0
100016a4:	24a5fff8 	addiu	a1,a1,-8
100016a8:	00452821 	addu	a1,v0,a1
100016ac:	2463fff0 	addiu	v1,v1,-16
100016b0:	ac450000 	sw	a1,0(v0)
100016b4:	ac430004 	sw	v1,4(v0)
100016b8:	aca00004 	sw	zero,4(a1)
100016bc:	8c430004 	lw	v1,4(v0)
100016c0:	aca00000 	sw	zero,0(a1)
100016c4:	3c051009 	lui	a1,0x1009
100016c8:	aca22140 	sw	v0,8512(a1)
100016cc:	3c041001 	lui	a0,0x1001
100016d0:	3c051009 	lui	a1,0x1009
100016d4:	aca2213c 	sw	v0,8508(a1)
100016d8:	24846d58 	addiu	a0,a0,27992
100016dc:	3c021009 	lui	v0,0x1009
100016e0:	080005ba 	j	100016e8 <hf_mtxinit>
100016e4:	ac432128 	sw	v1,8488(v0)

100016e8 <hf_mtxinit>:
100016e8:	ac800000 	sw	zero,0(a0)
100016ec:	03e00008 	jr	ra
100016f0:	00000000 	nop

100016f4 <hf_mtxlock>:
100016f4:	27bdffd8 	addiu	sp,sp,-40
100016f8:	afb10020 	sw	s1,32(sp)
100016fc:	afb0001c 	sw	s0,28(sp)
10001700:	afbf0024 	sw	ra,36(sp)
10001704:	00808825 	move	s1,a0
10001708:	24100001 	li	s0,1
1000170c:	0c00007b 	jal	100001ec <_interrupt_set>
10001710:	00002025 	move	a0,zero
10001714:	afa20014 	sw	v0,20(sp)
10001718:	8e220000 	lw	v0,0(s1)
1000171c:	00000000 	nop
10001720:	afa20010 	sw	v0,16(sp)
10001724:	ae300000 	sw	s0,0(s1)
10001728:	8fa40014 	lw	a0,20(sp)
1000172c:	0c00007b 	jal	100001ec <_interrupt_set>
10001730:	00000000 	nop
10001734:	8fa20010 	lw	v0,16(sp)
10001738:	00000000 	nop
1000173c:	1050fff3 	beq	v0,s0,1000170c <hf_mtxlock+0x18>
10001740:	00000000 	nop
10001744:	8fbf0024 	lw	ra,36(sp)
10001748:	8fb10020 	lw	s1,32(sp)
1000174c:	8fb0001c 	lw	s0,28(sp)
10001750:	03e00008 	jr	ra
10001754:	27bd0028 	addiu	sp,sp,40

10001758 <hf_mtxunlock>:
10001758:	ac800000 	sw	zero,0(a0)
1000175c:	03e00008 	jr	ra
10001760:	00000000 	nop

10001764 <_ni_status>:
10001764:	3c022000 	lui	v0,0x2000
10001768:	8c420090 	lw	v0,144(v0)
1000176c:	03e00008 	jr	ra
10001770:	3042ffff 	andi	v0,v0,0xffff

10001774 <_ni_read>:
10001774:	3c022000 	lui	v0,0x2000
10001778:	8c420070 	lw	v0,112(v0)
1000177c:	03e00008 	jr	ra
10001780:	3042ffff 	andi	v0,v0,0xffff

10001784 <_ni_write>:
10001784:	3084ffff 	andi	a0,a0,0xffff
10001788:	3c022000 	lui	v0,0x2000
1000178c:	ac440080 	sw	a0,128(v0)
10001790:	03e00008 	jr	ra
10001794:	00000000 	nop

10001798 <ni_isr>:
10001798:	27bdffc0 	addiu	sp,sp,-64
1000179c:	00002025 	move	a0,zero
100017a0:	afbf003c 	sw	ra,60(sp)
100017a4:	afb00018 	sw	s0,24(sp)
100017a8:	afbe0038 	sw	s8,56(sp)
100017ac:	afb70034 	sw	s7,52(sp)
100017b0:	afb60030 	sw	s6,48(sp)
100017b4:	afb5002c 	sw	s5,44(sp)
100017b8:	afb40028 	sw	s4,40(sp)
100017bc:	afb30024 	sw	s3,36(sp)
100017c0:	afb20020 	sw	s2,32(sp)
100017c4:	0c00007b 	jal	100001ec <_interrupt_set>
100017c8:	afb1001c 	sw	s1,28(sp)
100017cc:	0c0005dd 	jal	10001774 <_ni_read>
100017d0:	00000000 	nop
100017d4:	0c0005dd 	jal	10001774 <_ni_read>
100017d8:	00000000 	nop
100017dc:	0c0005dd 	jal	10001774 <_ni_read>
100017e0:	00408025 	move	s0,v0
100017e4:	2403003e 	li	v1,62
100017e8:	1043000d 	beq	v0,v1,10001820 <ni_isr+0x88>
100017ec:	00000000 	nop
100017f0:	8fbf003c 	lw	ra,60(sp)
100017f4:	8fbe0038 	lw	s8,56(sp)
100017f8:	8fb70034 	lw	s7,52(sp)
100017fc:	8fb60030 	lw	s6,48(sp)
10001800:	8fb5002c 	lw	s5,44(sp)
10001804:	8fb40028 	lw	s4,40(sp)
10001808:	8fb30024 	lw	s3,36(sp)
1000180c:	8fb20020 	lw	s2,32(sp)
10001810:	8fb1001c 	lw	s1,28(sp)
10001814:	8fb00018 	lw	s0,24(sp)
10001818:	03e00008 	jr	ra
1000181c:	27bd0040 	addiu	sp,sp,64
10001820:	0c0005dd 	jal	10001774 <_ni_read>
10001824:	00000000 	nop
10001828:	0c0005dd 	jal	10001774 <_ni_read>
1000182c:	00409825 	move	s3,v0
10001830:	0c0005dd 	jal	10001774 <_ni_read>
10001834:	0040f025 	move	s8,v0
10001838:	0c0005dd 	jal	10001774 <_ni_read>
1000183c:	00408825 	move	s1,v0
10001840:	0c0005dd 	jal	10001774 <_ni_read>
10001844:	0040a025 	move	s4,v0
10001848:	0c0005dd 	jal	10001774 <_ni_read>
1000184c:	0040a825 	move	s5,v0
10001850:	3c031009 	lui	v1,0x1009
10001854:	00403825 	move	a3,v0
10001858:	24632064 	addiu	v1,v1,8292
1000185c:	00002025 	move	a0,zero
10001860:	0800061d 	j	10001874 <ni_isr+0xdc>
10001864:	2406001e 	li	a2,30
10001868:	24840001 	addiu	a0,a0,1
1000186c:	10860041 	beq	a0,a2,10001974 <ni_isr+0x1dc>
10001870:	00000000 	nop
10001874:	94650000 	lhu	a1,0(v1)
10001878:	00000000 	nop
1000187c:	14b1fffa 	bne	a1,s1,10001868 <ni_isr+0xd0>
10001880:	24630002 	addiu	v1,v1,2
10001884:	1080003b 	beqz	a0,10001974 <ni_isr+0x1dc>
10001888:	0004b080 	sll	s6,a0,0x2
1000188c:	00041900 	sll	v1,a0,0x4
10001890:	02c31821 	addu	v1,s6,v1
10001894:	00641823 	subu	v1,v1,a0
10001898:	3c041001 	lui	a0,0x1001
1000189c:	000318c0 	sll	v1,v1,0x3
100018a0:	24846d5c 	addiu	a0,a0,27996
100018a4:	00641821 	addu	v1,v1,a0
100018a8:	8c620088 	lw	v0,136(v1)
100018ac:	00000000 	nop
100018b0:	10400030 	beqz	v0,10001974 <ni_isr+0x1dc>
100018b4:	3c171009 	lui	s7,0x1009
100018b8:	8ee42144 	lw	a0,8516(s7)
100018bc:	0c000d27 	jal	1000349c <hf_queue_remhead>
100018c0:	afa70010 	sw	a3,16(sp)
100018c4:	8fa70010 	lw	a3,16(sp)
100018c8:	10400037 	beqz	v0,100019a8 <ni_isr+0x210>
100018cc:	00409025 	move	s2,v0
100018d0:	a4500000 	sh	s0,0(v0)
100018d4:	2402003e 	li	v0,62
100018d8:	a6530004 	sh	s3,4(s2)
100018dc:	a6420002 	sh	v0,2(s2)
100018e0:	a65e0006 	sh	s8,6(s2)
100018e4:	a6510008 	sh	s1,8(s2)
100018e8:	a654000a 	sh	s4,10(s2)
100018ec:	a655000c 	sh	s5,12(s2)
100018f0:	a647000e 	sh	a3,14(s2)
100018f4:	26500010 	addiu	s0,s2,16
100018f8:	26530080 	addiu	s3,s2,128
100018fc:	0c0005dd 	jal	10001774 <_ni_read>
10001900:	00000000 	nop
10001904:	a6020000 	sh	v0,0(s0)
10001908:	26100002 	addiu	s0,s0,2
1000190c:	1613fffb 	bne	s0,s3,100018fc <ni_isr+0x164>
10001910:	3c021009 	lui	v0,0x1009
10001914:	244220a0 	addiu	v0,v0,8352
10001918:	0056b021 	addu	s6,v0,s6
1000191c:	8ec40000 	lw	a0,0(s6)
10001920:	0c000d11 	jal	10003444 <hf_queue_addtail>
10001924:	02402825 	move	a1,s2
10001928:	1040ffb1 	beqz	v0,100017f0 <ni_isr+0x58>
1000192c:	3c041000 	lui	a0,0x1000
10001930:	02202825 	move	a1,s1
10001934:	0c0001e3 	jal	1000078c <kprintf>
10001938:	24844840 	addiu	a0,a0,18496
1000193c:	8fbf003c 	lw	ra,60(sp)
10001940:	8fbe0038 	lw	s8,56(sp)
10001944:	8fb60030 	lw	s6,48(sp)
10001948:	8fb5002c 	lw	s5,44(sp)
1000194c:	8fb40028 	lw	s4,40(sp)
10001950:	8fb30024 	lw	s3,36(sp)
10001954:	8fb1001c 	lw	s1,28(sp)
10001958:	8fb00018 	lw	s0,24(sp)
1000195c:	8ee42144 	lw	a0,8516(s7)
10001960:	02402825 	move	a1,s2
10001964:	8fb70034 	lw	s7,52(sp)
10001968:	8fb20020 	lw	s2,32(sp)
1000196c:	08000d11 	j	10003444 <hf_queue_addtail>
10001970:	27bd0040 	addiu	sp,sp,64
10001974:	3c041000 	lui	a0,0x1000
10001978:	248448a8 	addiu	a0,a0,18600
1000197c:	02202825 	move	a1,s1
10001980:	02603025 	move	a2,s3
10001984:	0c0001e3 	jal	1000078c <kprintf>
10001988:	03c03825 	move	a3,s8
1000198c:	24100038 	li	s0,56
10001990:	0c0005dd 	jal	10001774 <_ni_read>
10001994:	2610ffff 	addiu	s0,s0,-1
10001998:	1600fffd 	bnez	s0,10001990 <ni_isr+0x1f8>
1000199c:	00000000 	nop
100019a0:	080005fc 	j	100017f0 <ni_isr+0x58>
100019a4:	00000000 	nop
100019a8:	3c041000 	lui	a0,0x1000
100019ac:	0c0001e3 	jal	1000078c <kprintf>
100019b0:	2484487c 	addiu	a0,a0,18556
100019b4:	24100038 	li	s0,56
100019b8:	0c0005dd 	jal	10001774 <_ni_read>
100019bc:	2610ffff 	addiu	s0,s0,-1
100019c0:	1600fffd 	bnez	s0,100019b8 <ni_isr+0x220>
100019c4:	00000000 	nop
100019c8:	080005fc 	j	100017f0 <ni_isr+0x58>
100019cc:	00000000 	nop

100019d0 <ni_init>:
100019d0:	3c041000 	lui	a0,0x1000
100019d4:	27bdffd8 	addiu	sp,sp,-40
100019d8:	248448f4 	addiu	a0,a0,18676
100019dc:	00002825 	move	a1,zero
100019e0:	afbf0024 	sw	ra,36(sp)
100019e4:	afb10020 	sw	s1,32(sp)
100019e8:	0c0001e3 	jal	1000078c <kprintf>
100019ec:	afb0001c 	sw	s0,28(sp)
100019f0:	3c041000 	lui	a0,0x1000
100019f4:	24844910 	addiu	a0,a0,18704
100019f8:	0c0001e3 	jal	1000078c <kprintf>
100019fc:	24050040 	li	a1,64
10001a00:	0c000cf0 	jal	100033c0 <hf_queue_create>
10001a04:	24040040 	li	a0,64
10001a08:	3c111009 	lui	s1,0x1009
10001a0c:	1040002e 	beqz	v0,10001ac8 <ni_init+0xf8>
10001a10:	ae222144 	sw	v0,8516(s1)
10001a14:	3c021009 	lui	v0,0x1009
10001a18:	3c031009 	lui	v1,0x1009
10001a1c:	24422064 	addiu	v0,v0,8292
10001a20:	246320a0 	addiu	v1,v1,8352
10001a24:	a4400000 	sh	zero,0(v0)
10001a28:	24420002 	addiu	v0,v0,2
10001a2c:	1443fffd 	bne	v0,v1,10001a24 <ni_init+0x54>
10001a30:	00000000 	nop
10001a34:	08000694 	j	10001a50 <ni_init+0x80>
10001a38:	24100040 	li	s0,64
10001a3c:	8e242144 	lw	a0,8516(s1)
10001a40:	0c000d11 	jal	10003444 <hf_queue_addtail>
10001a44:	00402825 	move	a1,v0
10001a48:	1200000e 	beqz	s0,10001a84 <ni_init+0xb4>
10001a4c:	00000000 	nop
10001a50:	0c000552 	jal	10001548 <hf_malloc>
10001a54:	24040080 	li	a0,128
10001a58:	1440fff8 	bnez	v0,10001a3c <ni_init+0x6c>
10001a5c:	2610ffff 	addiu	s0,s0,-1
10001a60:	24040004 	li	a0,4
10001a64:	0c000978 	jal	100025e0 <panic>
10001a68:	afa20010 	sw	v0,16(sp)
10001a6c:	8fa20010 	lw	v0,16(sp)
10001a70:	8e242144 	lw	a0,8516(s1)
10001a74:	0c000d11 	jal	10003444 <hf_queue_addtail>
10001a78:	00402825 	move	a1,v0
10001a7c:	1600fff4 	bnez	s0,10001a50 <ni_init+0x80>
10001a80:	00000000 	nop
10001a84:	24100040 	li	s0,64
10001a88:	0c0005dd 	jal	10001774 <_ni_read>
10001a8c:	2610ffff 	addiu	s0,s0,-1
10001a90:	1600fffd 	bnez	s0,10001a88 <ni_init+0xb8>
10001a94:	3c051000 	lui	a1,0x1000
10001a98:	24040100 	li	a0,256
10001a9c:	0c000163 	jal	1000058c <_irq_register>
10001aa0:	24a51798 	addiu	a1,a1,6040
10001aa4:	0c000190 	jal	10000640 <_irq_mask_set>
10001aa8:	24040100 	li	a0,256
10001aac:	8fbf0024 	lw	ra,36(sp)
10001ab0:	8fb10020 	lw	s1,32(sp)
10001ab4:	8fb0001c 	lw	s0,28(sp)
10001ab8:	3c041000 	lui	a0,0x1000
10001abc:	24844934 	addiu	a0,a0,18740
10001ac0:	080001e3 	j	1000078c <kprintf>
10001ac4:	27bd0028 	addiu	sp,sp,40
10001ac8:	0c000978 	jal	100025e0 <panic>
10001acc:	24040004 	li	a0,4
10001ad0:	08000686 	j	10001a18 <ni_init+0x48>
10001ad4:	3c021009 	lui	v0,0x1009

10001ad8 <hf_cpuid>:
10001ad8:	03e00008 	jr	ra
10001adc:	00001025 	move	v0,zero

10001ae0 <hf_comm_create>:
10001ae0:	27bdffd8 	addiu	sp,sp,-40
10001ae4:	afb10014 	sw	s1,20(sp)
10001ae8:	3091ffff 	andi	s1,a0,0xffff
10001aec:	2e22001e 	sltiu	v0,s1,30
10001af0:	afb00010 	sw	s0,16(sp)
10001af4:	afbf0024 	sw	ra,36(sp)
10001af8:	afb40020 	sw	s4,32(sp)
10001afc:	afb3001c 	sw	s3,28(sp)
10001b00:	afb20018 	sw	s2,24(sp)
10001b04:	30b0ffff 	andi	s0,a1,0xffff
10001b08:	10400045 	beqz	v0,10001c20 <hf_comm_create+0x140>
10001b0c:	30c6ffff 	andi	a2,a2,0xffff
10001b10:	0011a080 	sll	s4,s1,0x2
10001b14:	00111100 	sll	v0,s1,0x4
10001b18:	02821021 	addu	v0,s4,v0
10001b1c:	00511023 	subu	v0,v0,s1
10001b20:	000218c0 	sll	v1,v0,0x3
10001b24:	3c021001 	lui	v0,0x1001
10001b28:	24426d5c 	addiu	v0,v0,27996
10001b2c:	00621021 	addu	v0,v1,v0
10001b30:	8c420088 	lw	v0,136(v0)
10001b34:	00000000 	nop
10001b38:	10400039 	beqz	v0,10001c20 <hf_comm_create+0x140>
10001b3c:	3c121009 	lui	s2,0x1009
10001b40:	265220a0 	addiu	s2,s2,8352
10001b44:	02541021 	addu	v0,s2,s4
10001b48:	8c420000 	lw	v0,0(v0)
10001b4c:	00000000 	nop
10001b50:	1440002a 	bnez	v0,10001bfc <hf_comm_create+0x11c>
10001b54:	3c131009 	lui	s3,0x1009
10001b58:	26732064 	addiu	s3,s3,8292
10001b5c:	3c071009 	lui	a3,0x1009
10001b60:	02601025 	move	v0,s3
10001b64:	080006dd 	j	10001b74 <hf_comm_create+0x94>
10001b68:	24e720a0 	addiu	a3,a3,8352
10001b6c:	1047000e 	beq	v0,a3,10001ba8 <hf_comm_create+0xc8>
10001b70:	00000000 	nop
10001b74:	94430000 	lhu	v1,0(v0)
10001b78:	00000000 	nop
10001b7c:	1470fffb 	bne	v1,s0,10001b6c <hf_comm_create+0x8c>
10001b80:	24420002 	addiu	v0,v0,2
10001b84:	2402ff31 	li	v0,-207
10001b88:	8fbf0024 	lw	ra,36(sp)
10001b8c:	8fb40020 	lw	s4,32(sp)
10001b90:	8fb3001c 	lw	s3,28(sp)
10001b94:	8fb20018 	lw	s2,24(sp)
10001b98:	8fb10014 	lw	s1,20(sp)
10001b9c:	8fb00010 	lw	s0,16(sp)
10001ba0:	03e00008 	jr	ra
10001ba4:	27bd0028 	addiu	sp,sp,40
10001ba8:	24c2ffff 	addiu	v0,a2,-1
10001bac:	2c420040 	sltiu	v0,v0,64
10001bb0:	10400002 	beqz	v0,10001bbc <hf_comm_create+0xdc>
10001bb4:	24040040 	li	a0,64
10001bb8:	00c02025 	move	a0,a2
10001bbc:	0c000cf0 	jal	100033c0 <hf_queue_create>
10001bc0:	02549021 	addu	s2,s2,s4
10001bc4:	10400018 	beqz	v0,10001c28 <hf_comm_create+0x148>
10001bc8:	ae420000 	sw	v0,0(s2)
10001bcc:	00118840 	sll	s1,s1,0x1
10001bd0:	8fbf0024 	lw	ra,36(sp)
10001bd4:	02719821 	addu	s3,s3,s1
10001bd8:	a6700000 	sh	s0,0(s3)
10001bdc:	8fb40020 	lw	s4,32(sp)
10001be0:	8fb3001c 	lw	s3,28(sp)
10001be4:	8fb20018 	lw	s2,24(sp)
10001be8:	8fb10014 	lw	s1,20(sp)
10001bec:	8fb00010 	lw	s0,16(sp)
10001bf0:	00001025 	move	v0,zero
10001bf4:	03e00008 	jr	ra
10001bf8:	27bd0028 	addiu	sp,sp,40
10001bfc:	8fbf0024 	lw	ra,36(sp)
10001c00:	8fb40020 	lw	s4,32(sp)
10001c04:	8fb3001c 	lw	s3,28(sp)
10001c08:	8fb20018 	lw	s2,24(sp)
10001c0c:	8fb10014 	lw	s1,20(sp)
10001c10:	8fb00010 	lw	s0,16(sp)
10001c14:	2402ff32 	li	v0,-206
10001c18:	03e00008 	jr	ra
10001c1c:	27bd0028 	addiu	sp,sp,40
10001c20:	080006e2 	j	10001b88 <hf_comm_create+0xa8>
10001c24:	2402ff9c 	li	v0,-100
10001c28:	080006e2 	j	10001b88 <hf_comm_create+0xa8>
10001c2c:	2402ff98 	li	v0,-104

10001c30 <hf_recvprobe>:
10001c30:	27bdffe8 	addiu	sp,sp,-24
10001c34:	afb00010 	sw	s0,16(sp)
10001c38:	afbf0014 	sw	ra,20(sp)
10001c3c:	0c000f22 	jal	10003c88 <hf_selfid>
10001c40:	3c101009 	lui	s0,0x1009
10001c44:	00021080 	sll	v0,v0,0x2
10001c48:	261020a0 	addiu	s0,s0,8352
10001c4c:	00508021 	addu	s0,v0,s0
10001c50:	8e040000 	lw	a0,0(s0)
10001c54:	00000000 	nop
10001c58:	1080000e 	beqz	a0,10001c94 <hf_recvprobe+0x64>
10001c5c:	2402ff32 	li	v0,-206
10001c60:	0c000d0e 	jal	10003438 <hf_queue_count>
10001c64:	00000000 	nop
10001c68:	1040000e 	beqz	v0,10001ca4 <hf_recvprobe+0x74>
10001c6c:	00000000 	nop
10001c70:	8e040000 	lw	a0,0(s0)
10001c74:	0c000d3d 	jal	100034f4 <hf_queue_get>
10001c78:	00002825 	move	a1,zero
10001c7c:	10400009 	beqz	v0,10001ca4 <hf_recvprobe+0x74>
10001c80:	3403ffff 	li	v1,0xffff
10001c84:	9442000e 	lhu	v0,14(v0)
10001c88:	00000000 	nop
10001c8c:	10430005 	beq	v0,v1,10001ca4 <hf_recvprobe+0x74>
10001c90:	00000000 	nop
10001c94:	8fbf0014 	lw	ra,20(sp)
10001c98:	8fb00010 	lw	s0,16(sp)
10001c9c:	03e00008 	jr	ra
10001ca0:	27bd0018 	addiu	sp,sp,24
10001ca4:	8fbf0014 	lw	ra,20(sp)
10001ca8:	8fb00010 	lw	s0,16(sp)
10001cac:	2402ff30 	li	v0,-208
10001cb0:	03e00008 	jr	ra
10001cb4:	27bd0018 	addiu	sp,sp,24

10001cb8 <hf_recv>:
10001cb8:	27bdffc0 	addiu	sp,sp,-64
10001cbc:	afb70034 	sw	s7,52(sp)
10001cc0:	afb60030 	sw	s6,48(sp)
10001cc4:	afb5002c 	sw	s5,44(sp)
10001cc8:	afb30024 	sw	s3,36(sp)
10001ccc:	afb20020 	sw	s2,32(sp)
10001cd0:	afb1001c 	sw	s1,28(sp)
10001cd4:	afb00018 	sw	s0,24(sp)
10001cd8:	0080b025 	move	s6,a0
10001cdc:	afbf003c 	sw	ra,60(sp)
10001ce0:	afbe0038 	sw	s8,56(sp)
10001ce4:	afb40028 	sw	s4,40(sp)
10001ce8:	00a0a825 	move	s5,a1
10001cec:	afa60048 	sw	a2,72(sp)
10001cf0:	00e0b825 	move	s7,a3
10001cf4:	97b30052 	lhu	s3,82(sp)
10001cf8:	0c000f22 	jal	10003c88 <hf_selfid>
10001cfc:	3c101009 	lui	s0,0x1009
10001d00:	00028880 	sll	s1,v0,0x2
10001d04:	261020a0 	addiu	s0,s0,8352
10001d08:	02119021 	addu	s2,s0,s1
10001d0c:	8e440000 	lw	a0,0(s2)
10001d10:	00000000 	nop
10001d14:	108000c3 	beqz	a0,10002024 <hf_recv+0x36c>
10001d18:	2402ff32 	li	v0,-206
10001d1c:	0c000d0e 	jal	10003438 <hf_queue_count>
10001d20:	24140001 	li	s4,1
10001d24:	14400006 	bnez	v0,10001d40 <hf_recv+0x88>
10001d28:	00000000 	nop
10001d2c:	8e440000 	lw	a0,0(s2)
10001d30:	0c000d0e 	jal	10003438 <hf_queue_count>
10001d34:	00000000 	nop
10001d38:	1040fffc 	beqz	v0,10001d2c <hf_recv+0x74>
10001d3c:	00000000 	nop
10001d40:	8e440000 	lw	a0,0(s2)
10001d44:	0c000d3d 	jal	100034f4 <hf_queue_get>
10001d48:	00002825 	move	a1,zero
10001d4c:	10400005 	beqz	v0,10001d64 <hf_recv+0xac>
10001d50:	00002025 	move	a0,zero
10001d54:	9443000e 	lhu	v1,14(v0)
10001d58:	00000000 	nop
10001d5c:	1073000e 	beq	v1,s3,10001d98 <hf_recv+0xe0>
10001d60:	00000000 	nop
10001d64:	0c00007b 	jal	100001ec <_interrupt_set>
10001d68:	00000000 	nop
10001d6c:	8e440000 	lw	a0,0(s2)
10001d70:	0c000d27 	jal	1000349c <hf_queue_remhead>
10001d74:	0040f025 	move	s8,v0
10001d78:	8e440000 	lw	a0,0(s2)
10001d7c:	0c000d11 	jal	10003444 <hf_queue_addtail>
10001d80:	00402825 	move	a1,v0
10001d84:	0c00007b 	jal	100001ec <_interrupt_set>
10001d88:	03c02025 	move	a0,s8
10001d8c:	8e440000 	lw	a0,0(s2)
10001d90:	0800074c 	j	10001d30 <hf_recv+0x78>
10001d94:	00000000 	nop
10001d98:	9442000c 	lhu	v0,12(v0)
10001d9c:	00000000 	nop
10001da0:	1454fff0 	bne	v0,s4,10001d64 <hf_recv+0xac>
10001da4:	00000000 	nop
10001da8:	0c00007b 	jal	100001ec <_interrupt_set>
10001dac:	00002025 	move	a0,zero
10001db0:	8e440000 	lw	a0,0(s2)
10001db4:	0c000d27 	jal	1000349c <hf_queue_remhead>
10001db8:	0040a025 	move	s4,v0
10001dbc:	0040f025 	move	s8,v0
10001dc0:	0c00007b 	jal	100001ec <_interrupt_set>
10001dc4:	02802025 	move	a0,s4
10001dc8:	97c30004 	lhu	v1,4(s8)
10001dcc:	24020070 	li	v0,112
10001dd0:	a6c30000 	sh	v1,0(s6)
10001dd4:	97c30006 	lhu	v1,6(s8)
10001dd8:	00000000 	nop
10001ddc:	a6a30000 	sh	v1,0(s5)
10001de0:	97c4000a 	lhu	a0,10(s8)
10001de4:	00000000 	nop
10001de8:	0082001b 	divu	zero,a0,v0
10001dec:	a6e40000 	sh	a0,0(s7)
10001df0:	97c6000c 	lhu	a2,12(s8)
10001df4:	00001010 	mfhi	v0
10001df8:	3042ffff 	andi	v0,v0,0xffff
10001dfc:	0000a012 	mflo	s4
10001e00:	14400097 	bnez	v0,10002060 <hf_recv+0x3a8>
10001e04:	00000000 	nop
10001e08:	3294ffff 	andi	s4,s4,0xffff
10001e0c:	2e820002 	sltiu	v0,s4,2
10001e10:	14400098 	bnez	v0,10002074 <hf_recv+0x3bc>
10001e14:	3c021009 	lui	v0,0x1009
10001e18:	24c2ffff 	addiu	v0,a2,-1
10001e1c:	02821021 	addu	v0,s4,v0
10001e20:	3042ffff 	andi	v0,v0,0xffff
10001e24:	3c041009 	lui	a0,0x1009
10001e28:	8fa30048 	lw	v1,72(sp)
10001e2c:	afa20014 	sw	v0,20(sp)
10001e30:	0000b025 	move	s6,zero
10001e34:	00c01025 	move	v0,a2
10001e38:	afa40010 	sw	a0,16(sp)
10001e3c:	02118021 	addu	s0,s0,s1
10001e40:	24d50001 	addiu	s5,a2,1
10001e44:	10c20002 	beq	a2,v0,10001e50 <hf_recv+0x198>
10001e48:	32b5ffff 	andi	s5,s5,0xffff
10001e4c:	2416ff34 	li	s6,-204
10001e50:	27c40010 	addiu	a0,s8,16
10001e54:	24720070 	addiu	s2,v1,112
10001e58:	94860000 	lhu	a2,0(a0)
10001e5c:	24630002 	addiu	v1,v1,2
10001e60:	00063202 	srl	a2,a2,0x8
10001e64:	a066fffe 	sb	a2,-2(v1)
10001e68:	94860000 	lhu	a2,0(a0)
10001e6c:	24840002 	addiu	a0,a0,2
10001e70:	1643fff9 	bne	s2,v1,10001e58 <hf_recv+0x1a0>
10001e74:	a066ffff 	sb	a2,-1(v1)
10001e78:	0c00007b 	jal	100001ec <_interrupt_set>
10001e7c:	00002025 	move	a0,zero
10001e80:	8fa50010 	lw	a1,16(sp)
10001e84:	00408825 	move	s1,v0
10001e88:	8ca42144 	lw	a0,8516(a1)
10001e8c:	0c000d11 	jal	10003444 <hf_queue_addtail>
10001e90:	03c02825 	move	a1,s8
10001e94:	0c00007b 	jal	100001ec <_interrupt_set>
10001e98:	02202025 	move	a0,s1
10001e9c:	24110202 	li	s1,514
10001ea0:	8e040000 	lw	a0,0(s0)
10001ea4:	0c000d0e 	jal	10003438 <hf_queue_count>
10001ea8:	00000000 	nop
10001eac:	1040fffc 	beqz	v0,10001ea0 <hf_recv+0x1e8>
10001eb0:	00000000 	nop
10001eb4:	8e040000 	lw	a0,0(s0)
10001eb8:	0c000d3d 	jal	100034f4 <hf_queue_get>
10001ebc:	00002825 	move	a1,zero
10001ec0:	2631ffff 	addiu	s1,s1,-1
10001ec4:	10400005 	beqz	v0,10001edc <hf_recv+0x224>
10001ec8:	00002025 	move	a0,zero
10001ecc:	9443000e 	lhu	v1,14(v0)
10001ed0:	00000000 	nop
10001ed4:	1073001d 	beq	v1,s3,10001f4c <hf_recv+0x294>
10001ed8:	00000000 	nop
10001edc:	0c00007b 	jal	100001ec <_interrupt_set>
10001ee0:	00000000 	nop
10001ee4:	8e040000 	lw	a0,0(s0)
10001ee8:	0c000d27 	jal	1000349c <hf_queue_remhead>
10001eec:	0040f025 	move	s8,v0
10001ef0:	8e040000 	lw	a0,0(s0)
10001ef4:	0c000d11 	jal	10003444 <hf_queue_addtail>
10001ef8:	00402825 	move	a1,v0
10001efc:	0c00007b 	jal	100001ec <_interrupt_set>
10001f00:	03c02025 	move	a0,s8
10001f04:	1620ffe6 	bnez	s1,10001ea0 <hf_recv+0x1e8>
10001f08:	00000000 	nop
10001f0c:	0c00007b 	jal	100001ec <_interrupt_set>
10001f10:	00002025 	move	a0,zero
10001f14:	8e040000 	lw	a0,0(s0)
10001f18:	0c000d27 	jal	1000349c <hf_queue_remhead>
10001f1c:	00408825 	move	s1,v0
10001f20:	02202025 	move	a0,s1
10001f24:	0c00007b 	jal	100001ec <_interrupt_set>
10001f28:	0040f025 	move	s8,v0
10001f2c:	8fa20014 	lw	v0,20(sp)
10001f30:	00000000 	nop
10001f34:	12a20015 	beq	s5,v0,10001f8c <hf_recv+0x2d4>
10001f38:	2684fffe 	addiu	a0,s4,-2
10001f3c:	97c2000c 	lhu	v0,12(s8)
10001f40:	02401825 	move	v1,s2
10001f44:	08000790 	j	10001e40 <hf_recv+0x188>
10001f48:	02a03025 	move	a2,s5
10001f4c:	9442000c 	lhu	v0,12(v0)
10001f50:	00000000 	nop
10001f54:	1455ffe1 	bne	v0,s5,10001edc <hf_recv+0x224>
10001f58:	00000000 	nop
10001f5c:	0c00007b 	jal	100001ec <_interrupt_set>
10001f60:	00002025 	move	a0,zero
10001f64:	8e040000 	lw	a0,0(s0)
10001f68:	0c000d27 	jal	1000349c <hf_queue_remhead>
10001f6c:	00408825 	move	s1,v0
10001f70:	02202025 	move	a0,s1
10001f74:	0c00007b 	jal	100001ec <_interrupt_set>
10001f78:	0040f025 	move	s8,v0
10001f7c:	8fa20014 	lw	v0,20(sp)
10001f80:	00000000 	nop
10001f84:	16a2ffed 	bne	s5,v0,10001f3c <hf_recv+0x284>
10001f88:	2684fffe 	addiu	a0,s4,-2
10001f8c:	3084ffff 	andi	a0,a0,0xffff
10001f90:	24840001 	addiu	a0,a0,1
10001f94:	97c2000c 	lhu	v0,12(s8)
10001f98:	00041900 	sll	v1,a0,0x4
10001f9c:	000421c0 	sll	a0,a0,0x7
10001fa0:	1055002c 	beq	v0,s5,10002054 <hf_recv+0x39c>
10001fa4:	00831823 	subu	v1,a0,v1
10001fa8:	96e40000 	lhu	a0,0(s7)
10001fac:	2416ff34 	li	s6,-204
10001fb0:	8fa50048 	lw	a1,72(sp)
10001fb4:	27c60010 	addiu	a2,s8,16
10001fb8:	00a31021 	addu	v0,a1,v1
10001fbc:	080007fb 	j	10001fec <hf_recv+0x334>
10001fc0:	24670070 	addiu	a3,v1,112
10001fc4:	94c40000 	lhu	a0,0(a2)
10001fc8:	24420002 	addiu	v0,v0,2
10001fcc:	00042202 	srl	a0,a0,0x8
10001fd0:	a044fffe 	sb	a0,-2(v0)
10001fd4:	94c40000 	lhu	a0,0(a2)
10001fd8:	24c60002 	addiu	a2,a2,2
10001fdc:	10670006 	beq	v1,a3,10001ff8 <hf_recv+0x340>
10001fe0:	a044ffff 	sb	a0,-1(v0)
10001fe4:	96e40000 	lhu	a0,0(s7)
10001fe8:	00000000 	nop
10001fec:	0064202a 	slt	a0,v1,a0
10001ff0:	1480fff4 	bnez	a0,10001fc4 <hf_recv+0x30c>
10001ff4:	24630002 	addiu	v1,v1,2
10001ff8:	0c00007b 	jal	100001ec <_interrupt_set>
10001ffc:	00002025 	move	a0,zero
10002000:	00408025 	move	s0,v0
10002004:	8fa20010 	lw	v0,16(sp)
10002008:	00000000 	nop
1000200c:	8c442144 	lw	a0,8516(v0)
10002010:	0c000d11 	jal	10003444 <hf_queue_addtail>
10002014:	03c02825 	move	a1,s8
10002018:	0c00007b 	jal	100001ec <_interrupt_set>
1000201c:	02002025 	move	a0,s0
10002020:	02c01025 	move	v0,s6
10002024:	8fbf003c 	lw	ra,60(sp)
10002028:	8fbe0038 	lw	s8,56(sp)
1000202c:	8fb70034 	lw	s7,52(sp)
10002030:	8fb60030 	lw	s6,48(sp)
10002034:	8fb5002c 	lw	s5,44(sp)
10002038:	8fb40028 	lw	s4,40(sp)
1000203c:	8fb30024 	lw	s3,36(sp)
10002040:	8fb20020 	lw	s2,32(sp)
10002044:	8fb1001c 	lw	s1,28(sp)
10002048:	8fb00018 	lw	s0,24(sp)
1000204c:	03e00008 	jr	ra
10002050:	27bd0040 	addiu	sp,sp,64
10002054:	96e40000 	lhu	a0,0(s7)
10002058:	080007ec 	j	10001fb0 <hf_recv+0x2f8>
1000205c:	00000000 	nop
10002060:	26940001 	addiu	s4,s4,1
10002064:	3294ffff 	andi	s4,s4,0xffff
10002068:	2e820002 	sltiu	v0,s4,2
1000206c:	1040ff6a 	beqz	v0,10001e18 <hf_recv+0x160>
10002070:	3c021009 	lui	v0,0x1009
10002074:	00001825 	move	v1,zero
10002078:	0000b025 	move	s6,zero
1000207c:	080007ec 	j	10001fb0 <hf_recv+0x2f8>
10002080:	afa20010 	sw	v0,16(sp)

10002084 <hf_send>:
10002084:	27bdff30 	addiu	sp,sp,-208
10002088:	97a300e2 	lhu	v1,226(sp)
1000208c:	30a5ffff 	andi	a1,a1,0xffff
10002090:	afb600c0 	sw	s6,192(sp)
10002094:	afb400b8 	sw	s4,184(sp)
10002098:	afa30098 	sw	v1,152(sp)
1000209c:	3094ffff 	andi	s4,a0,0xffff
100020a0:	afbf00cc 	sw	ra,204(sp)
100020a4:	afbe00c8 	sw	s8,200(sp)
100020a8:	afb700c4 	sw	s7,196(sp)
100020ac:	afb500bc 	sw	s5,188(sp)
100020b0:	afb300b4 	sw	s3,180(sp)
100020b4:	afb200b0 	sw	s2,176(sp)
100020b8:	afb100ac 	sw	s1,172(sp)
100020bc:	afb000a8 	sw	s0,168(sp)
100020c0:	afa600d8 	sw	a2,216(sp)
100020c4:	afa50094 	sw	a1,148(sp)
100020c8:	0c000f22 	jal	10003c88 <hf_selfid>
100020cc:	30f6ffff 	andi	s6,a3,0xffff
100020d0:	3c041009 	lui	a0,0x1009
100020d4:	00021880 	sll	v1,v0,0x2
100020d8:	248420a0 	addiu	a0,a0,8352
100020dc:	00641821 	addu	v1,v1,a0
100020e0:	8c630000 	lw	v1,0(v1)
100020e4:	00000000 	nop
100020e8:	106000c7 	beqz	v1,10002408 <hf_send+0x384>
100020ec:	24030070 	li	v1,112
100020f0:	02c3001b 	divu	zero,s6,v1
100020f4:	00001810 	mfhi	v1
100020f8:	3063ffff 	andi	v1,v1,0xffff
100020fc:	0000b812 	mflo	s7
10002100:	146000aa 	bnez	v1,100023ac <hf_send+0x328>
10002104:	00000000 	nop
10002108:	32f7ffff 	andi	s7,s7,0xffff
1000210c:	2ee30002 	sltiu	v1,s7,2
10002110:	146000ab 	bnez	v1,100023c0 <hf_send+0x33c>
10002114:	24060003 	li	a2,3
10002118:	24030003 	li	v1,3
1000211c:	0283001b 	divu	zero,s4,v1
10002120:	00021040 	sll	v0,v0,0x1
10002124:	8fa300d8 	lw	v1,216(sp)
10002128:	afa200a0 	sw	v0,160(sp)
1000212c:	24750001 	addiu	s5,v1,1
10002130:	3c021009 	lui	v0,0x1009
10002134:	8fa300a0 	lw	v1,160(sp)
10002138:	24422064 	addiu	v0,v0,8292
1000213c:	afa2009c 	sw	v0,156(sp)
10002140:	0043f021 	addu	s8,v0,v1
10002144:	24130001 	li	s3,1
10002148:	27b00090 	addiu	s0,sp,144
1000214c:	27b10010 	addiu	s1,sp,16
10002150:	00002810 	mfhi	a1
10002154:	30a2ffff 	andi	v0,a1,0xffff
10002158:	00021100 	sll	v0,v0,0x4
1000215c:	0000a012 	mflo	s4
10002160:	0054a025 	or	s4,v0,s4
10002164:	3294ffff 	andi	s4,s4,0xffff
10002168:	afb40090 	sw	s4,144(sp)
1000216c:	8fa30090 	lw	v1,144(sp)
10002170:	97c20000 	lhu	v0,0(s8)
10002174:	a7a30010 	sh	v1,16(sp)
10002178:	8fa30094 	lw	v1,148(sp)
1000217c:	2404003e 	li	a0,62
10002180:	a7a30018 	sh	v1,24(sp)
10002184:	8fa30098 	lw	v1,152(sp)
10002188:	a7a40012 	sh	a0,18(sp)
1000218c:	a7a3001e 	sh	v1,30(sp)
10002190:	a7a00014 	sh	zero,20(sp)
10002194:	a7a20016 	sh	v0,22(sp)
10002198:	a7b6001a 	sh	s6,26(sp)
1000219c:	a7b3001c 	sh	s3,28(sp)
100021a0:	27a40020 	addiu	a0,sp,32
100021a4:	02a01825 	move	v1,s5
100021a8:	9062ffff 	lbu	v0,-1(v1)
100021ac:	90650000 	lbu	a1,0(v1)
100021b0:	00021200 	sll	v0,v0,0x8
100021b4:	00451025 	or	v0,v0,a1
100021b8:	a4820000 	sh	v0,0(a0)
100021bc:	24840002 	addiu	a0,a0,2
100021c0:	1604fff9 	bne	s0,a0,100021a8 <hf_send+0x124>
100021c4:	24630002 	addiu	v1,v1,2
100021c8:	0c0005d9 	jal	10001764 <_ni_status>
100021cc:	00000000 	nop
100021d0:	30420001 	andi	v0,v0,0x1
100021d4:	1040fffc 	beqz	v0,100021c8 <hf_send+0x144>
100021d8:	00000000 	nop
100021dc:	0c00007b 	jal	100001ec <_interrupt_set>
100021e0:	00002025 	move	a0,zero
100021e4:	0c0005d9 	jal	10001764 <_ni_status>
100021e8:	00409025 	move	s2,v0
100021ec:	30420001 	andi	v0,v0,0x1
100021f0:	1440000a 	bnez	v0,1000221c <hf_send+0x198>
100021f4:	02402025 	move	a0,s2
100021f8:	0c00007b 	jal	100001ec <_interrupt_set>
100021fc:	00000000 	nop
10002200:	0c0005d9 	jal	10001764 <_ni_status>
10002204:	00000000 	nop
10002208:	30420001 	andi	v0,v0,0x1
1000220c:	1040ffee 	beqz	v0,100021c8 <hf_send+0x144>
10002210:	00000000 	nop
10002214:	08000877 	j	100021dc <hf_send+0x158>
10002218:	00000000 	nop
1000221c:	0220a025 	move	s4,s1
10002220:	96840000 	lhu	a0,0(s4)
10002224:	0c0005e1 	jal	10001784 <_ni_write>
10002228:	26940002 	addiu	s4,s4,2
1000222c:	1614fffc 	bne	s0,s4,10002220 <hf_send+0x19c>
10002230:	02402025 	move	a0,s2
10002234:	26730001 	addiu	s3,s3,1
10002238:	0c00007b 	jal	100001ec <_interrupt_set>
1000223c:	3273ffff 	andi	s3,s3,0xffff
10002240:	1677ffca 	bne	s3,s7,1000216c <hf_send+0xe8>
10002244:	26b50070 	addiu	s5,s5,112
10002248:	26e2fffe 	addiu	v0,s7,-2
1000224c:	3042ffff 	andi	v0,v0,0xffff
10002250:	24420001 	addiu	v0,v0,1
10002254:	00022900 	sll	a1,v0,0x4
10002258:	000211c0 	sll	v0,v0,0x7
1000225c:	00452823 	subu	a1,v0,a1
10002260:	8fa3009c 	lw	v1,156(sp)
10002264:	8fa400a0 	lw	a0,160(sp)
10002268:	a7a00014 	sh	zero,20(sp)
1000226c:	00641021 	addu	v0,v1,a0
10002270:	8fa30090 	lw	v1,144(sp)
10002274:	94420000 	lhu	v0,0(v0)
10002278:	a7a30010 	sh	v1,16(sp)
1000227c:	2403003e 	li	v1,62
10002280:	a7a30012 	sh	v1,18(sp)
10002284:	8fa30094 	lw	v1,148(sp)
10002288:	a7a20016 	sh	v0,22(sp)
1000228c:	a7a30018 	sh	v1,24(sp)
10002290:	8fa30098 	lw	v1,152(sp)
10002294:	a7b6001a 	sh	s6,26(sp)
10002298:	a7a3001e 	sh	v1,30(sp)
1000229c:	8fa300d8 	lw	v1,216(sp)
100022a0:	a7b7001c 	sh	s7,28(sp)
100022a4:	00a04825 	move	t1,a1
100022a8:	00653021 	addu	a2,v1,a1
100022ac:	24020008 	li	v0,8
100022b0:	080008b7 	j	100022dc <hf_send+0x258>
100022b4:	24080040 	li	t0,64
100022b8:	90c40000 	lbu	a0,0(a2)
100022bc:	90c70001 	lbu	a3,1(a2)
100022c0:	00042200 	sll	a0,a0,0x8
100022c4:	00872025 	or	a0,a0,a3
100022c8:	24420001 	addiu	v0,v0,1
100022cc:	a4640010 	sh	a0,16(v1)
100022d0:	24a50002 	addiu	a1,a1,2
100022d4:	1048000c 	beq	v0,t0,10002308 <hf_send+0x284>
100022d8:	24c60002 	addiu	a2,a2,2
100022dc:	00a91823 	subu	v1,a1,t1
100022e0:	00b6202a 	slt	a0,a1,s6
100022e4:	1480fff4 	bnez	a0,100022b8 <hf_send+0x234>
100022e8:	02231821 	addu	v1,s1,v1
100022ec:	00021040 	sll	v0,v0,0x1
100022f0:	02221021 	addu	v0,s1,v0
100022f4:	2403dead 	li	v1,-8531
100022f8:	a4430000 	sh	v1,0(v0)
100022fc:	24420002 	addiu	v0,v0,2
10002300:	1602fffd 	bne	s0,v0,100022f8 <hf_send+0x274>
10002304:	00000000 	nop
10002308:	0c0005d9 	jal	10001764 <_ni_status>
1000230c:	00000000 	nop
10002310:	30420001 	andi	v0,v0,0x1
10002314:	1040fffc 	beqz	v0,10002308 <hf_send+0x284>
10002318:	00000000 	nop
1000231c:	0c00007b 	jal	100001ec <_interrupt_set>
10002320:	00002025 	move	a0,zero
10002324:	0c0005d9 	jal	10001764 <_ni_status>
10002328:	00409025 	move	s2,v0
1000232c:	30420001 	andi	v0,v0,0x1
10002330:	1440000a 	bnez	v0,1000235c <hf_send+0x2d8>
10002334:	02402025 	move	a0,s2
10002338:	0c00007b 	jal	100001ec <_interrupt_set>
1000233c:	00000000 	nop
10002340:	0c0005d9 	jal	10001764 <_ni_status>
10002344:	00000000 	nop
10002348:	30420001 	andi	v0,v0,0x1
1000234c:	1040ffee 	beqz	v0,10002308 <hf_send+0x284>
10002350:	00000000 	nop
10002354:	080008c7 	j	1000231c <hf_send+0x298>
10002358:	00000000 	nop
1000235c:	96240000 	lhu	a0,0(s1)
10002360:	0c0005e1 	jal	10001784 <_ni_write>
10002364:	26310002 	addiu	s1,s1,2
10002368:	1611fffc 	bne	s0,s1,1000235c <hf_send+0x2d8>
1000236c:	00000000 	nop
10002370:	0c00007b 	jal	100001ec <_interrupt_set>
10002374:	02402025 	move	a0,s2
10002378:	00001025 	move	v0,zero
1000237c:	8fbf00cc 	lw	ra,204(sp)
10002380:	8fbe00c8 	lw	s8,200(sp)
10002384:	8fb700c4 	lw	s7,196(sp)
10002388:	8fb600c0 	lw	s6,192(sp)
1000238c:	8fb500bc 	lw	s5,188(sp)
10002390:	8fb400b8 	lw	s4,184(sp)
10002394:	8fb300b4 	lw	s3,180(sp)
10002398:	8fb200b0 	lw	s2,176(sp)
1000239c:	8fb100ac 	lw	s1,172(sp)
100023a0:	8fb000a8 	lw	s0,168(sp)
100023a4:	03e00008 	jr	ra
100023a8:	27bd00d0 	addiu	sp,sp,208
100023ac:	26f70001 	addiu	s7,s7,1
100023b0:	32f7ffff 	andi	s7,s7,0xffff
100023b4:	2ee30002 	sltiu	v1,s7,2
100023b8:	1060ff57 	beqz	v1,10002118 <hf_send+0x94>
100023bc:	24060003 	li	a2,3
100023c0:	0286001b 	divu	zero,s4,a2
100023c4:	00021040 	sll	v0,v0,0x1
100023c8:	afa200a0 	sw	v0,160(sp)
100023cc:	3c021009 	lui	v0,0x1009
100023d0:	24422064 	addiu	v0,v0,8292
100023d4:	24170001 	li	s7,1
100023d8:	00002825 	move	a1,zero
100023dc:	afa2009c 	sw	v0,156(sp)
100023e0:	27b00090 	addiu	s0,sp,144
100023e4:	27b10010 	addiu	s1,sp,16
100023e8:	00001810 	mfhi	v1
100023ec:	3063ffff 	andi	v1,v1,0xffff
100023f0:	00031900 	sll	v1,v1,0x4
100023f4:	0000a012 	mflo	s4
100023f8:	0074a025 	or	s4,v1,s4
100023fc:	3294ffff 	andi	s4,s4,0xffff
10002400:	08000898 	j	10002260 <hf_send+0x1dc>
10002404:	afb40090 	sw	s4,144(sp)
10002408:	080008df 	j	1000237c <hf_send+0x2f8>
1000240c:	2402ff32 	li	v0,-206

10002410 <hf_recvack>:
10002410:	27bdffd8 	addiu	sp,sp,-40
10002414:	97a2003a 	lhu	v0,58(sp)
10002418:	afb20020 	sw	s2,32(sp)
1000241c:	afa20010 	sw	v0,16(sp)
10002420:	afb1001c 	sw	s1,28(sp)
10002424:	afb00018 	sw	s0,24(sp)
10002428:	afbf0024 	sw	ra,36(sp)
1000242c:	00809025 	move	s2,a0
10002430:	0c00072e 	jal	10001cb8 <hf_recv>
10002434:	00a08825 	move	s1,a1
10002438:	14400009 	bnez	v0,10002460 <hf_recvack+0x50>
1000243c:	00408025 	move	s0,v0
10002440:	96440000 	lhu	a0,0(s2)
10002444:	96250000 	lhu	a1,0(s1)
10002448:	3402ffff 	li	v0,0xffff
1000244c:	3c061000 	lui	a2,0x1000
10002450:	afa20010 	sw	v0,16(sp)
10002454:	24c64954 	addiu	a2,a2,18772
10002458:	0c000821 	jal	10002084 <hf_send>
1000245c:	24070003 	li	a3,3
10002460:	8fbf0024 	lw	ra,36(sp)
10002464:	02001025 	move	v0,s0
10002468:	8fb20020 	lw	s2,32(sp)
1000246c:	8fb1001c 	lw	s1,28(sp)
10002470:	8fb00018 	lw	s0,24(sp)
10002474:	03e00008 	jr	ra
10002478:	27bd0028 	addiu	sp,sp,40

1000247c <hf_sendack>:
1000247c:	27bdffc8 	addiu	sp,sp,-56
10002480:	97a3004a 	lhu	v1,74(sp)
10002484:	00e01025 	move	v0,a3
10002488:	afa30010 	sw	v1,16(sp)
1000248c:	3084ffff 	andi	a0,a0,0xffff
10002490:	30a5ffff 	andi	a1,a1,0xffff
10002494:	30e7ffff 	andi	a3,a3,0xffff
10002498:	afb10024 	sw	s1,36(sp)
1000249c:	afbf0034 	sw	ra,52(sp)
100024a0:	afb40030 	sw	s4,48(sp)
100024a4:	afb3002c 	sw	s3,44(sp)
100024a8:	afb20028 	sw	s2,40(sp)
100024ac:	afb00020 	sw	s0,32(sp)
100024b0:	8fb1004c 	lw	s1,76(sp)
100024b4:	0c000821 	jal	10002084 <hf_send>
100024b8:	a7a20044 	sh	v0,68(sp)
100024bc:	10400009 	beqz	v0,100024e4 <hf_sendack+0x68>
100024c0:	00000000 	nop
100024c4:	8fbf0034 	lw	ra,52(sp)
100024c8:	8fb40030 	lw	s4,48(sp)
100024cc:	8fb3002c 	lw	s3,44(sp)
100024d0:	8fb20028 	lw	s2,40(sp)
100024d4:	8fb10024 	lw	s1,36(sp)
100024d8:	8fb00020 	lw	s0,32(sp)
100024dc:	03e00008 	jr	ra
100024e0:	27bd0038 	addiu	sp,sp,56
100024e4:	0c000f22 	jal	10003c88 <hf_selfid>
100024e8:	3413ffff 	li	s3,0xffff
100024ec:	0c000124 	jal	10000490 <_read_us>
100024f0:	00408025 	move	s0,v0
100024f4:	00602825 	move	a1,v1
100024f8:	00402025 	move	a0,v0
100024fc:	240703e8 	li	a3,1000
10002500:	0c000460 	jal	10001180 <__udivdi3>
10002504:	00003025 	move	a2,zero
10002508:	3c021009 	lui	v0,0x1009
1000250c:	00108080 	sll	s0,s0,0x2
10002510:	244220a0 	addiu	v0,v0,8352
10002514:	00609025 	move	s2,v1
10002518:	00508021 	addu	s0,v0,s0
1000251c:	08000956 	j	10002558 <hf_sendack+0xdc>
10002520:	24140003 	li	s4,3
10002524:	0c000124 	jal	10000490 <_read_us>
10002528:	00000000 	nop
1000252c:	00602825 	move	a1,v1
10002530:	00402025 	move	a0,v0
10002534:	240703e8 	li	a3,1000
10002538:	0c000460 	jal	10001180 <__udivdi3>
1000253c:	00003025 	move	a2,zero
10002540:	00722823 	subu	a1,v1,s2
10002544:	0065202b 	sltu	a0,v1,a1
10002548:	1444001c 	bne	v0,a0,100025bc <hf_sendack+0x140>
1000254c:	0225282b 	sltu	a1,s1,a1
10002550:	14a0001a 	bnez	a1,100025bc <hf_sendack+0x140>
10002554:	00000000 	nop
10002558:	8e040000 	lw	a0,0(s0)
1000255c:	0c000d0e 	jal	10003438 <hf_queue_count>
10002560:	00000000 	nop
10002564:	1040ffef 	beqz	v0,10002524 <hf_sendack+0xa8>
10002568:	00002825 	move	a1,zero
1000256c:	8e040000 	lw	a0,0(s0)
10002570:	0c000d3d 	jal	100034f4 <hf_queue_get>
10002574:	00000000 	nop
10002578:	1040ffea 	beqz	v0,10002524 <hf_sendack+0xa8>
1000257c:	00000000 	nop
10002580:	9443000e 	lhu	v1,14(v0)
10002584:	00000000 	nop
10002588:	1473ffe6 	bne	v1,s3,10002524 <hf_sendack+0xa8>
1000258c:	00000000 	nop
10002590:	9442000a 	lhu	v0,10(v0)
10002594:	00000000 	nop
10002598:	1454ffe2 	bne	v0,s4,10002524 <hf_sendack+0xa8>
1000259c:	27a4001e 	addiu	a0,sp,30
100025a0:	afb30010 	sw	s3,16(sp)
100025a4:	27a5001c 	addiu	a1,sp,28
100025a8:	27a60018 	addiu	a2,sp,24
100025ac:	0c00072e 	jal	10001cb8 <hf_recv>
100025b0:	27a70044 	addiu	a3,sp,68
100025b4:	08000931 	j	100024c4 <hf_sendack+0x48>
100025b8:	00001025 	move	v0,zero
100025bc:	8fbf0034 	lw	ra,52(sp)
100025c0:	8fb40030 	lw	s4,48(sp)
100025c4:	8fb3002c 	lw	s3,44(sp)
100025c8:	8fb20028 	lw	s2,40(sp)
100025cc:	8fb10024 	lw	s1,36(sp)
100025d0:	8fb00020 	lw	s0,32(sp)
100025d4:	2402ff35 	li	v0,-203
100025d8:	03e00008 	jr	ra
100025dc:	27bd0038 	addiu	sp,sp,56

100025e0 <panic>:
100025e0:	27bdffe8 	addiu	sp,sp,-24
100025e4:	afb00010 	sw	s0,16(sp)
100025e8:	00808025 	move	s0,a0
100025ec:	afbf0014 	sw	ra,20(sp)
100025f0:	0c00007b 	jal	100001ec <_interrupt_set>
100025f4:	00002025 	move	a0,zero
100025f8:	3c021009 	lui	v0,0x1009
100025fc:	94452118 	lhu	a1,8472(v0)
10002600:	3c041000 	lui	a0,0x1000
10002604:	0c0001e3 	jal	1000078c <kprintf>
10002608:	24844958 	addiu	a0,a0,18776
1000260c:	2e02000f 	sltiu	v0,s0,15
10002610:	10400008 	beqz	v0,10002634 <panic+0x54>
10002614:	3c021000 	lui	v0,0x1000
10002618:	00108080 	sll	s0,s0,0x2
1000261c:	24424b14 	addiu	v0,v0,19220
10002620:	00501021 	addu	v0,v0,s0
10002624:	8c420000 	lw	v0,0(v0)
10002628:	00000000 	nop
1000262c:	00400008 	jr	v0
10002630:	00000000 	nop
10002634:	3c041000 	lui	a0,0x1000
10002638:	0c0001e3 	jal	1000078c <kprintf>
1000263c:	24844af0 	addiu	a0,a0,19184
10002640:	3c041000 	lui	a0,0x1000
10002644:	0c00044c 	jal	10001130 <printf>
10002648:	24844b00 	addiu	a0,a0,19200
1000264c:	0c00015f 	jal	1000057c <_panic>
10002650:	00000000 	nop
10002654:	08000995 	j	10002654 <panic+0x74>
10002658:	00000000 	nop
1000265c:	3c041000 	lui	a0,0x1000
10002660:	0c0001e3 	jal	1000078c <kprintf>
10002664:	24844adc 	addiu	a0,a0,19164
10002668:	08000991 	j	10002644 <panic+0x64>
1000266c:	3c041000 	lui	a0,0x1000
10002670:	3c041000 	lui	a0,0x1000
10002674:	0c0001e3 	jal	1000078c <kprintf>
10002678:	24844ac0 	addiu	a0,a0,19136
1000267c:	08000991 	j	10002644 <panic+0x64>
10002680:	3c041000 	lui	a0,0x1000
10002684:	3c041000 	lui	a0,0x1000
10002688:	0c0001e3 	jal	1000078c <kprintf>
1000268c:	24844a9c 	addiu	a0,a0,19100
10002690:	08000991 	j	10002644 <panic+0x64>
10002694:	3c041000 	lui	a0,0x1000
10002698:	3c041000 	lui	a0,0x1000
1000269c:	0c0001e3 	jal	1000078c <kprintf>
100026a0:	24844a7c 	addiu	a0,a0,19068
100026a4:	08000991 	j	10002644 <panic+0x64>
100026a8:	3c041000 	lui	a0,0x1000
100026ac:	3c041000 	lui	a0,0x1000
100026b0:	0c0001e3 	jal	1000078c <kprintf>
100026b4:	24844a5c 	addiu	a0,a0,19036
100026b8:	08000991 	j	10002644 <panic+0x64>
100026bc:	3c041000 	lui	a0,0x1000
100026c0:	3c041000 	lui	a0,0x1000
100026c4:	0c0001e3 	jal	1000078c <kprintf>
100026c8:	24844a44 	addiu	a0,a0,19012
100026cc:	08000991 	j	10002644 <panic+0x64>
100026d0:	3c041000 	lui	a0,0x1000
100026d4:	3c041000 	lui	a0,0x1000
100026d8:	0c0001e3 	jal	1000078c <kprintf>
100026dc:	24844a10 	addiu	a0,a0,18960
100026e0:	08000991 	j	10002644 <panic+0x64>
100026e4:	3c041000 	lui	a0,0x1000
100026e8:	3c041000 	lui	a0,0x1000
100026ec:	0c0001e3 	jal	1000078c <kprintf>
100026f0:	24844a28 	addiu	a0,a0,18984
100026f4:	08000991 	j	10002644 <panic+0x64>
100026f8:	3c041000 	lui	a0,0x1000
100026fc:	3c041000 	lui	a0,0x1000
10002700:	0c0001e3 	jal	1000078c <kprintf>
10002704:	248449f8 	addiu	a0,a0,18936
10002708:	08000991 	j	10002644 <panic+0x64>
1000270c:	3c041000 	lui	a0,0x1000
10002710:	3c041000 	lui	a0,0x1000
10002714:	0c0001e3 	jal	1000078c <kprintf>
10002718:	248449e8 	addiu	a0,a0,18920
1000271c:	08000991 	j	10002644 <panic+0x64>
10002720:	3c041000 	lui	a0,0x1000
10002724:	3c041000 	lui	a0,0x1000
10002728:	0c0001e3 	jal	1000078c <kprintf>
1000272c:	248449c8 	addiu	a0,a0,18888
10002730:	08000991 	j	10002644 <panic+0x64>
10002734:	3c041000 	lui	a0,0x1000
10002738:	3c041000 	lui	a0,0x1000
1000273c:	0c0001e3 	jal	1000078c <kprintf>
10002740:	248449a4 	addiu	a0,a0,18852
10002744:	08000991 	j	10002644 <panic+0x64>
10002748:	3c041000 	lui	a0,0x1000
1000274c:	3c041000 	lui	a0,0x1000
10002750:	0c0001e3 	jal	1000078c <kprintf>
10002754:	24844988 	addiu	a0,a0,18824
10002758:	08000991 	j	10002644 <panic+0x64>
1000275c:	3c041000 	lui	a0,0x1000
10002760:	3c041000 	lui	a0,0x1000
10002764:	0c0001e3 	jal	1000078c <kprintf>
10002768:	24844974 	addiu	a0,a0,18804
1000276c:	08000991 	j	10002644 <panic+0x64>
10002770:	3c041000 	lui	a0,0x1000
10002774:	3c041000 	lui	a0,0x1000
10002778:	0c0001e3 	jal	1000078c <kprintf>
1000277c:	248449b4 	addiu	a0,a0,18868
10002780:	08000991 	j	10002644 <panic+0x64>
10002784:	3c041000 	lui	a0,0x1000

10002788 <aggregator>:
10002788:	27bdf7b8 	addiu	sp,sp,-2120
1000278c:	afb3082c 	sw	s3,2092(sp)
10002790:	afb20828 	sw	s2,2088(sp)
10002794:	3c131001 	lui	s3,0x1001
10002798:	3c121001 	lui	s2,0x1001
1000279c:	8e646c94 	lw	a0,27796(s3)
100027a0:	8e426c98 	lw	v0,27800(s2)
100027a4:	afbf0844 	sw	ra,2116(sp)
100027a8:	00820018 	mult	a0,v0
100027ac:	afb60838 	sw	s6,2104(sp)
100027b0:	afbe0840 	sw	s8,2112(sp)
100027b4:	afb7083c 	sw	s7,2108(sp)
100027b8:	afb50834 	sw	s5,2100(sp)
100027bc:	afb40830 	sw	s4,2096(sp)
100027c0:	afb10824 	sw	s1,2084(sp)
100027c4:	00002012 	mflo	a0
100027c8:	0c00045c 	jal	10001170 <malloc>
100027cc:	afb00820 	sw	s0,2080(sp)
100027d0:	0c000f22 	jal	10003c88 <hf_selfid>
100027d4:	0040b025 	move	s6,v0
100027d8:	00402025 	move	a0,v0
100027dc:	24051770 	li	a1,6000
100027e0:	0c0006b8 	jal	10001ae0 <hf_comm_create>
100027e4:	00003025 	move	a2,zero
100027e8:	1440008e 	bnez	v0,10002a24 <aggregator+0x29c>
100027ec:	00000000 	nop
100027f0:	3c111000 	lui	s1,0x1000
100027f4:	3c141000 	lui	s4,0x1000
100027f8:	00008025 	move	s0,zero
100027fc:	26314b78 	addiu	s1,s1,19320
10002800:	26944b50 	addiu	s4,s4,19280
10002804:	08000a05 	j	10002814 <aggregator+0x8c>
10002808:	2e150004 	sltiu	s5,s0,4
1000280c:	12a00024 	beqz	s5,100028a0 <aggregator+0x118>
10002810:	00000000 	nop
10002814:	0c00070c 	jal	10001c30 <hf_recvprobe>
10002818:	00000000 	nop
1000281c:	0440fffb 	bltz	v0,1000280c <aggregator+0x84>
10002820:	3042ffff 	andi	v0,v0,0xffff
10002824:	27a60418 	addiu	a2,sp,1048
10002828:	afa20010 	sw	v0,16(sp)
1000282c:	27a4081c 	addiu	a0,sp,2076
10002830:	27a5081a 	addiu	a1,sp,2074
10002834:	0c000904 	jal	10002410 <hf_recvack>
10002838:	27a70818 	addiu	a3,sp,2072
1000283c:	00023400 	sll	a2,v0,0x10
10002840:	00063403 	sra	a2,a2,0x10
10002844:	14c0007b 	bnez	a2,10002a34 <aggregator+0x2ac>
10002848:	00001025 	move	v0,zero
1000284c:	24040400 	li	a0,1024
10002850:	27a50418 	addiu	a1,sp,1048
10002854:	00a21821 	addu	v1,a1,v0
10002858:	90650000 	lbu	a1,0(v1)
1000285c:	27a60018 	addiu	a2,sp,24
10002860:	00c21821 	addu	v1,a2,v0
10002864:	24420001 	addiu	v0,v0,1
10002868:	1444fff9 	bne	v0,a0,10002850 <aggregator+0xc8>
1000286c:	a0650000 	sb	a1,0(v1)
10002870:	8fa6001c 	lw	a2,28(sp)
10002874:	93a50020 	lbu	a1,32(sp)
10002878:	02c61021 	addu	v0,s6,a2
1000287c:	93b50018 	lbu	s5,24(sp)
10002880:	a0450000 	sb	a1,0(v0)
10002884:	0c00044c 	jal	10001130 <printf>
10002888:	02202025 	move	a0,s1
1000288c:	24020003 	li	v0,3
10002890:	12a2005d 	beq	s5,v0,10002a08 <aggregator+0x280>
10002894:	2e020004 	sltiu	v0,s0,4
10002898:	1440ffde 	bnez	v0,10002814 <aggregator+0x8c>
1000289c:	2e150004 	sltiu	s5,s0,4
100028a0:	8e456c98 	lw	a1,27800(s2)
100028a4:	8e666c94 	lw	a2,27796(s3)
100028a8:	3c041000 	lui	a0,0x1000
100028ac:	0c00044c 	jal	10001130 <printf>
100028b0:	24844bac 	addiu	a0,a0,19372
100028b4:	3c041000 	lui	a0,0x1000
100028b8:	0c00044c 	jal	10001130 <printf>
100028bc:	24844bd0 	addiu	a0,a0,19408
100028c0:	8e626c94 	lw	v0,27796(s3)
100028c4:	00000000 	nop
100028c8:	1840002c 	blez	v0,1000297c <aggregator+0x1f4>
100028cc:	3c151000 	lui	s5,0x1000
100028d0:	3c141000 	lui	s4,0x1000
100028d4:	00008825 	move	s1,zero
100028d8:	00008025 	move	s0,zero
100028dc:	26b54be8 	addiu	s5,s5,19432
100028e0:	26944bf0 	addiu	s4,s4,19440
100028e4:	8e426c98 	lw	v0,27800(s2)
100028e8:	00000000 	nop
100028ec:	1840001e 	blez	v0,10002968 <aggregator+0x1e0>
100028f0:	3c031000 	lui	v1,0x1000
100028f4:	0000f025 	move	s8,zero
100028f8:	24774c0c 	addiu	s7,v1,19468
100028fc:	02220018 	mult	s1,v0
10002900:	02de1821 	addu	v1,s6,s8
10002904:	02a02025 	move	a0,s5
10002908:	00001012 	mflo	v0
1000290c:	00621021 	addu	v0,v1,v0
10002910:	90450000 	lbu	a1,0(v0)
10002914:	0c00044c 	jal	10001130 <printf>
10002918:	26100001 	addiu	s0,s0,1
1000291c:	8e626c94 	lw	v0,27796(s3)
10002920:	00000000 	nop
10002924:	2442ffff 	addiu	v0,v0,-1
10002928:	0222102a 	slt	v0,s1,v0
1000292c:	1440002d 	bnez	v0,100029e4 <aggregator+0x25c>
10002930:	02802025 	move	a0,s4
10002934:	8e426c98 	lw	v0,27800(s2)
10002938:	00000000 	nop
1000293c:	2442ffff 	addiu	v0,v0,-1
10002940:	03c2102a 	slt	v0,s8,v0
10002944:	14400027 	bnez	v0,100029e4 <aggregator+0x25c>
10002948:	3202000f 	andi	v0,s0,0xf
1000294c:	1040002a 	beqz	v0,100029f8 <aggregator+0x270>
10002950:	27de0001 	addiu	s8,s8,1
10002954:	8e426c98 	lw	v0,27800(s2)
10002958:	00000000 	nop
1000295c:	03c2182a 	slt	v1,s8,v0
10002960:	1460ffe7 	bnez	v1,10002900 <aggregator+0x178>
10002964:	02220018 	mult	s1,v0
10002968:	8e626c94 	lw	v0,27796(s3)
1000296c:	26310001 	addiu	s1,s1,1
10002970:	0222102a 	slt	v0,s1,v0
10002974:	1440ffdb 	bnez	v0,100028e4 <aggregator+0x15c>
10002978:	00000000 	nop
1000297c:	3c041000 	lui	a0,0x1000
10002980:	0c00044c 	jal	10001130 <printf>
10002984:	24844bf4 	addiu	a0,a0,19444
10002988:	0c00045e 	jal	10001178 <free>
1000298c:	02c02025 	move	a0,s6
10002990:	3c041000 	lui	a0,0x1000
10002994:	0c00044c 	jal	10001130 <printf>
10002998:	24844bf8 	addiu	a0,a0,19448
1000299c:	0c000978 	jal	100025e0 <panic>
100029a0:	00002025 	move	a0,zero
100029a4:	0c000f22 	jal	10003c88 <hf_selfid>
100029a8:	00000000 	nop
100029ac:	0c001051 	jal	10004144 <hf_kill>
100029b0:	00402025 	move	a0,v0
100029b4:	8fbf0844 	lw	ra,2116(sp)
100029b8:	8fbe0840 	lw	s8,2112(sp)
100029bc:	8fb7083c 	lw	s7,2108(sp)
100029c0:	8fb60838 	lw	s6,2104(sp)
100029c4:	8fb50834 	lw	s5,2100(sp)
100029c8:	8fb40830 	lw	s4,2096(sp)
100029cc:	8fb3082c 	lw	s3,2092(sp)
100029d0:	8fb20828 	lw	s2,2088(sp)
100029d4:	8fb10824 	lw	s1,2084(sp)
100029d8:	8fb00820 	lw	s0,2080(sp)
100029dc:	03e00008 	jr	ra
100029e0:	27bd0848 	addiu	sp,sp,2120
100029e4:	0c00044c 	jal	10001130 <printf>
100029e8:	27de0001 	addiu	s8,s8,1
100029ec:	3202000f 	andi	v0,s0,0xf
100029f0:	1440ffd8 	bnez	v0,10002954 <aggregator+0x1cc>
100029f4:	00000000 	nop
100029f8:	0c00044c 	jal	10001130 <printf>
100029fc:	02e02025 	move	a0,s7
10002a00:	08000a55 	j	10002954 <aggregator+0x1cc>
10002a04:	00000000 	nop
10002a08:	26100001 	addiu	s0,s0,1
10002a0c:	321000ff 	andi	s0,s0,0xff
10002a10:	2e020004 	sltiu	v0,s0,4
10002a14:	1440ff7f 	bnez	v0,10002814 <aggregator+0x8c>
10002a18:	2e150004 	sltiu	s5,s0,4
10002a1c:	08000a28 	j	100028a0 <aggregator+0x118>
10002a20:	00000000 	nop
10002a24:	0c000978 	jal	100025e0 <panic>
10002a28:	240400ff 	li	a0,255
10002a2c:	080009fd 	j	100027f4 <aggregator+0x6c>
10002a30:	3c111000 	lui	s1,0x1000
10002a34:	97a5081c 	lhu	a1,2076(sp)
10002a38:	0c00044c 	jal	10001130 <printf>
10002a3c:	02802025 	move	a0,s4
10002a40:	2e020004 	sltiu	v0,s0,4
10002a44:	1440ff73 	bnez	v0,10002814 <aggregator+0x8c>
10002a48:	2e150004 	sltiu	s5,s0,4
10002a4c:	08000a28 	j	100028a0 <aggregator+0x118>
10002a50:	00000000 	nop

10002a54 <gausian>:
10002a54:	3c021000 	lui	v0,0x1000
10002a58:	27bdffc8 	addiu	sp,sp,-56
10002a5c:	244244a0 	addiu	v0,v0,17568
10002a60:	03a01825 	move	v1,sp
10002a64:	24450030 	addiu	a1,v0,48
10002a68:	944d0000 	lhu	t5,0(v0)
10002a6c:	944c0002 	lhu	t4,2(v0)
10002a70:	944b0004 	lhu	t3,4(v0)
10002a74:	944a0006 	lhu	t2,6(v0)
10002a78:	94490008 	lhu	t1,8(v0)
10002a7c:	9448000a 	lhu	t0,10(v0)
10002a80:	9447000c 	lhu	a3,12(v0)
10002a84:	9446000e 	lhu	a2,14(v0)
10002a88:	24420010 	addiu	v0,v0,16
10002a8c:	a46d0000 	sh	t5,0(v1)
10002a90:	a46c0002 	sh	t4,2(v1)
10002a94:	a46b0004 	sh	t3,4(v1)
10002a98:	a46a0006 	sh	t2,6(v1)
10002a9c:	a4690008 	sh	t1,8(v1)
10002aa0:	a468000a 	sh	t0,10(v1)
10002aa4:	a467000c 	sh	a3,12(v1)
10002aa8:	a466000e 	sh	a2,14(v1)
10002aac:	1445ffee 	bne	v0,a1,10002a68 <gausian+0x14>
10002ab0:	24630010 	addiu	v1,v1,16
10002ab4:	94420000 	lhu	v0,0(v0)
10002ab8:	27a90032 	addiu	t1,sp,50
10002abc:	a4620000 	sh	v0,0(v1)
10002ac0:	03a01825 	move	v1,sp
10002ac4:	00001025 	move	v0,zero
10002ac8:	2468000a 	addiu	t0,v1,10
10002acc:	00803025 	move	a2,a0
10002ad0:	90c50000 	lbu	a1,0(a2)
10002ad4:	84670000 	lh	a3,0(v1)
10002ad8:	24630002 	addiu	v1,v1,2
10002adc:	00a70018 	mult	a1,a3
10002ae0:	24c60001 	addiu	a2,a2,1
10002ae4:	00002812 	mflo	a1
10002ae8:	1503fff9 	bne	t0,v1,10002ad0 <gausian+0x7c>
10002aec:	00451021 	addu	v0,v0,a1
10002af0:	24840005 	addiu	a0,a0,5
10002af4:	1528fff4 	bne	t1,t0,10002ac8 <gausian+0x74>
10002af8:	01001825 	move	v1,t0
10002afc:	2403009f 	li	v1,159
10002b00:	0043001a 	div	zero,v0,v1
10002b04:	27bd0038 	addiu	sp,sp,56
10002b08:	00001012 	mflo	v0
10002b0c:	03e00008 	jr	ra
10002b10:	304200ff 	andi	v0,v0,0xff

10002b14 <sobel>:
10002b14:	3c061000 	lui	a2,0x1000
10002b18:	24c344d4 	addiu	v1,a2,17620
10002b1c:	94c644d4 	lhu	a2,17620(a2)
10002b20:	27bdffc8 	addiu	sp,sp,-56
10002b24:	3c051000 	lui	a1,0x1000
10002b28:	a7a60028 	sh	a2,40(sp)
10002b2c:	afb00034 	sw	s0,52(sp)
10002b30:	94660002 	lhu	a2,2(v1)
10002b34:	94700004 	lhu	s0,4(v1)
10002b38:	24a244e8 	addiu	v0,a1,17640
10002b3c:	946d000e 	lhu	t5,14(v1)
10002b40:	946c0010 	lhu	t4,16(v1)
10002b44:	944a0002 	lhu	t2,2(v0)
10002b48:	94790006 	lhu	t9,6(v1)
10002b4c:	94780008 	lhu	t8,8(v1)
10002b50:	946f000a 	lhu	t7,10(v1)
10002b54:	946e000c 	lhu	t6,12(v1)
10002b58:	94ab44e8 	lhu	t3,17640(a1)
10002b5c:	94490004 	lhu	t1,4(v0)
10002b60:	94480006 	lhu	t0,6(v0)
10002b64:	94470008 	lhu	a3,8(v0)
10002b68:	9445000e 	lhu	a1,14(v0)
10002b6c:	94430010 	lhu	v1,16(v0)
10002b70:	a7a60016 	sh	a2,22(sp)
10002b74:	a7b00018 	sh	s0,24(sp)
10002b78:	9446000a 	lhu	a2,10(v0)
10002b7c:	97b00028 	lhu	s0,40(sp)
10002b80:	9442000c 	lhu	v0,12(v0)
10002b84:	a7ad0022 	sh	t5,34(sp)
10002b88:	a7ac0024 	sh	t4,36(sp)
10002b8c:	a7aa0002 	sh	t2,2(sp)
10002b90:	a7b00014 	sh	s0,20(sp)
10002b94:	a7b9001a 	sh	t9,26(sp)
10002b98:	a7b8001c 	sh	t8,28(sp)
10002b9c:	a7af001e 	sh	t7,30(sp)
10002ba0:	a7ae0020 	sh	t6,32(sp)
10002ba4:	a7ab0000 	sh	t3,0(sp)
10002ba8:	248a0003 	addiu	t2,a0,3
10002bac:	a7a90004 	sh	t1,4(sp)
10002bb0:	27ad0014 	addiu	t5,sp,20
10002bb4:	a7a2000c 	sh	v0,12(sp)
10002bb8:	a7a80006 	sh	t0,6(sp)
10002bbc:	a7a70008 	sh	a3,8(sp)
10002bc0:	a7a6000a 	sh	a2,10(sp)
10002bc4:	03a06025 	move	t4,sp
10002bc8:	a7a5000e 	sh	a1,14(sp)
10002bcc:	a7a30010 	sh	v1,16(sp)
10002bd0:	2484000c 	addiu	a0,a0,12
10002bd4:	00001025 	move	v0,zero
10002bd8:	00004825 	move	t1,zero
10002bdc:	2545fffd 	addiu	a1,t2,-3
10002be0:	01804025 	move	t0,t4
10002be4:	01a03825 	move	a3,t5
10002be8:	90a30000 	lbu	v1,0(a1)
10002bec:	84e60000 	lh	a2,0(a3)
10002bf0:	850b0000 	lh	t3,0(t0)
10002bf4:	00660018 	mult	v1,a2
10002bf8:	24a50001 	addiu	a1,a1,1
10002bfc:	24e70002 	addiu	a3,a3,2
10002c00:	25080002 	addiu	t0,t0,2
10002c04:	00003012 	mflo	a2
10002c08:	01264821 	addu	t1,t1,a2
10002c0c:	00000000 	nop
10002c10:	006b0018 	mult	v1,t3
10002c14:	00001812 	mflo	v1
10002c18:	14aafff3 	bne	a1,t2,10002be8 <sobel+0xd4>
10002c1c:	00431021 	addu	v0,v0,v1
10002c20:	24aa0003 	addiu	t2,a1,3
10002c24:	25ad0006 	addiu	t5,t5,6
10002c28:	1544ffec 	bne	t2,a0,10002bdc <sobel+0xc8>
10002c2c:	258c0006 	addiu	t4,t4,6
10002c30:	00420018 	mult	v0,v0
10002c34:	24060010 	li	a2,16
10002c38:	00001025 	move	v0,zero
10002c3c:	00002825 	move	a1,zero
10002c40:	00002012 	mflo	a0
	...
10002c4c:	01290018 	mult	t1,t1
10002c50:	00004812 	mflo	t1
10002c54:	00892021 	addu	a0,a0,t1
10002c58:	00052840 	sll	a1,a1,0x1
10002c5c:	00043f82 	srl	a3,a0,0x1e
10002c60:	00051840 	sll	v1,a1,0x1
10002c64:	00021080 	sll	v0,v0,0x2
10002c68:	00e21021 	addu	v0,a3,v0
10002c6c:	24630001 	addiu	v1,v1,1
10002c70:	0043382b 	sltu	a3,v0,v1
10002c74:	24c6ffff 	addiu	a2,a2,-1
10002c78:	14e00003 	bnez	a3,10002c88 <sobel+0x174>
10002c7c:	00042080 	sll	a0,a0,0x2
10002c80:	00431023 	subu	v0,v0,v1
10002c84:	24a50001 	addiu	a1,a1,1
10002c88:	14c0fff3 	bnez	a2,10002c58 <sobel+0x144>
10002c8c:	00000000 	nop
10002c90:	28a20100 	slti	v0,a1,256
10002c94:	10400006 	beqz	v0,10002cb0 <sobel+0x19c>
10002c98:	240200ff 	li	v0,255
10002c9c:	04a10007 	bgez	a1,10002cbc <sobel+0x1a8>
10002ca0:	00001025 	move	v0,zero
10002ca4:	8fb00034 	lw	s0,52(sp)
10002ca8:	03e00008 	jr	ra
10002cac:	27bd0038 	addiu	sp,sp,56
10002cb0:	8fb00034 	lw	s0,52(sp)
10002cb4:	03e00008 	jr	ra
10002cb8:	27bd0038 	addiu	sp,sp,56
10002cbc:	8fb00034 	lw	s0,52(sp)
10002cc0:	30a200ff 	andi	v0,a1,0xff
10002cc4:	03e00008 	jr	ra
10002cc8:	27bd0038 	addiu	sp,sp,56

10002ccc <worker>:
10002ccc:	27bdf7a8 	addiu	sp,sp,-2136
10002cd0:	afbf0854 	sw	ra,2132(sp)
10002cd4:	afb50850 	sw	s5,2128(sp)
10002cd8:	afb4084c 	sw	s4,2124(sp)
10002cdc:	afb30848 	sw	s3,2120(sp)
10002ce0:	afb20844 	sw	s2,2116(sp)
10002ce4:	afb10840 	sw	s1,2112(sp)
10002ce8:	0c000f22 	jal	10003c88 <hf_selfid>
10002cec:	afb0083c 	sw	s0,2108(sp)
10002cf0:	00402025 	move	a0,v0
10002cf4:	24051388 	li	a1,5000
10002cf8:	0c0006b8 	jal	10001ae0 <hf_comm_create>
10002cfc:	00003025 	move	a2,zero
10002d00:	1440005e 	bnez	v0,10002e7c <worker+0x1b0>
10002d04:	00000000 	nop
10002d08:	3c101000 	lui	s0,0x1000
10002d0c:	3c111000 	lui	s1,0x1000
10002d10:	26104c34 	addiu	s0,s0,19508
10002d14:	26314c70 	addiu	s1,s1,19568
10002d18:	3c121000 	lui	s2,0x1000
10002d1c:	24020003 	li	v0,3
10002d20:	1262003f 	beq	s3,v0,10002e20 <worker+0x154>
10002d24:	00000000 	nop
10002d28:	0c00070c 	jal	10001c30 <hf_recvprobe>
10002d2c:	00000000 	nop
10002d30:	0440fffd 	bltz	v0,10002d28 <worker+0x5c>
10002d34:	3042ffff 	andi	v0,v0,0xffff
10002d38:	27a60418 	addiu	a2,sp,1048
10002d3c:	afa20010 	sw	v0,16(sp)
10002d40:	27a40836 	addiu	a0,sp,2102
10002d44:	27a50834 	addiu	a1,sp,2100
10002d48:	0c000904 	jal	10002410 <hf_recvack>
10002d4c:	27a70832 	addiu	a3,sp,2098
10002d50:	00023400 	sll	a2,v0,0x10
10002d54:	00063403 	sra	a2,a2,0x10
10002d58:	14c0004c 	bnez	a2,10002e8c <worker+0x1c0>
10002d5c:	27a40418 	addiu	a0,sp,1048
10002d60:	00001025 	move	v0,zero
10002d64:	24060400 	li	a2,1024
10002d68:	00821821 	addu	v1,a0,v0
10002d6c:	90650000 	lbu	a1,0(v1)
10002d70:	27a80018 	addiu	t0,sp,24
10002d74:	01021821 	addu	v1,t0,v0
10002d78:	24420001 	addiu	v0,v0,1
10002d7c:	1446fffa 	bne	v0,a2,10002d68 <worker+0x9c>
10002d80:	a0650000 	sb	a1,0(v1)
10002d84:	97a20832 	lhu	v0,2098(sp)
10002d88:	2403000b 	li	v1,11
10002d8c:	93b30018 	lbu	s3,24(sp)
10002d90:	8fb4001c 	lw	s4,28(sp)
10002d94:	10430042 	beq	v0,v1,10002ea0 <worker+0x1d4>
10002d98:	2403001b 	li	v1,27
10002d9c:	1043005d 	beq	v0,v1,10002f14 <worker+0x248>
10002da0:	00002825 	move	a1,zero
10002da4:	93b50020 	lbu	s5,32(sp)
10002da8:	a3a00018 	sb	zero,24(sp)
10002dac:	0c0006b6 	jal	10001ad8 <hf_cpuid>
10002db0:	a3b50020 	sb	s5,32(sp)
10002db4:	00402825 	move	a1,v0
10002db8:	02803825 	move	a3,s4
10002dbc:	02002025 	move	a0,s0
10002dc0:	0c00044c 	jal	10001130 <printf>
10002dc4:	02a03025 	move	a2,s5
10002dc8:	0c0006b6 	jal	10001ad8 <hf_cpuid>
10002dcc:	00000000 	nop
10002dd0:	afa20010 	sw	v0,16(sp)
10002dd4:	240201f4 	li	v0,500
10002dd8:	afa20014 	sw	v0,20(sp)
10002ddc:	24040001 	li	a0,1
10002de0:	24051770 	li	a1,6000
10002de4:	27a60018 	addiu	a2,sp,24
10002de8:	0c00091f 	jal	1000247c <hf_sendack>
10002dec:	24070400 	li	a3,1024
10002df0:	0002a400 	sll	s4,v0,0x10
10002df4:	0014a403 	sra	s4,s4,0x10
10002df8:	1280ffc8 	beqz	s4,10002d1c <worker+0x50>
10002dfc:	00000000 	nop
10002e00:	0c0006b6 	jal	10001ad8 <hf_cpuid>
10002e04:	00000000 	nop
10002e08:	00402825 	move	a1,v0
10002e0c:	02202025 	move	a0,s1
10002e10:	0c00044c 	jal	10001130 <printf>
10002e14:	02803025 	move	a2,s4
10002e18:	08000b48 	j	10002d20 <worker+0x54>
10002e1c:	24020003 	li	v0,3
10002e20:	0c0006b6 	jal	10001ad8 <hf_cpuid>
10002e24:	a3b30018 	sb	s3,24(sp)
10002e28:	afa20010 	sw	v0,16(sp)
10002e2c:	240201f4 	li	v0,500
10002e30:	27a60018 	addiu	a2,sp,24
10002e34:	24040001 	li	a0,1
10002e38:	24051770 	li	a1,6000
10002e3c:	24070400 	li	a3,1024
10002e40:	0c00091f 	jal	1000247c <hf_sendack>
10002e44:	afa20014 	sw	v0,20(sp)
10002e48:	0c000f22 	jal	10003c88 <hf_selfid>
10002e4c:	00000000 	nop
10002e50:	0c001051 	jal	10004144 <hf_kill>
10002e54:	00402025 	move	a0,v0
10002e58:	8fbf0854 	lw	ra,2132(sp)
10002e5c:	8fb50850 	lw	s5,2128(sp)
10002e60:	8fb4084c 	lw	s4,2124(sp)
10002e64:	8fb30848 	lw	s3,2120(sp)
10002e68:	8fb20844 	lw	s2,2116(sp)
10002e6c:	8fb10840 	lw	s1,2112(sp)
10002e70:	8fb0083c 	lw	s0,2108(sp)
10002e74:	03e00008 	jr	ra
10002e78:	27bd0858 	addiu	sp,sp,2136
10002e7c:	0c000978 	jal	100025e0 <panic>
10002e80:	240400ff 	li	a0,255
10002e84:	08000b43 	j	10002d0c <worker+0x40>
10002e88:	3c101000 	lui	s0,0x1000
10002e8c:	97a50836 	lhu	a1,2102(sp)
10002e90:	0c00044c 	jal	10001130 <printf>
10002e94:	26444c10 	addiu	a0,s2,19472
10002e98:	08000b48 	j	10002d20 <worker+0x54>
10002e9c:	24020003 	li	v0,3
10002ea0:	93a20020 	lbu	v0,32(sp)
10002ea4:	27a40818 	addiu	a0,sp,2072
10002ea8:	a3a20818 	sb	v0,2072(sp)
10002eac:	93a20021 	lbu	v0,33(sp)
10002eb0:	00000000 	nop
10002eb4:	a3a20819 	sb	v0,2073(sp)
10002eb8:	93a20022 	lbu	v0,34(sp)
10002ebc:	00000000 	nop
10002ec0:	a3a2081a 	sb	v0,2074(sp)
10002ec4:	93a20023 	lbu	v0,35(sp)
10002ec8:	00000000 	nop
10002ecc:	a3a2081b 	sb	v0,2075(sp)
10002ed0:	93a20024 	lbu	v0,36(sp)
10002ed4:	00000000 	nop
10002ed8:	a3a2081c 	sb	v0,2076(sp)
10002edc:	93a20025 	lbu	v0,37(sp)
10002ee0:	00000000 	nop
10002ee4:	a3a2081d 	sb	v0,2077(sp)
10002ee8:	93a20026 	lbu	v0,38(sp)
10002eec:	00000000 	nop
10002ef0:	a3a2081e 	sb	v0,2078(sp)
10002ef4:	93a20027 	lbu	v0,39(sp)
10002ef8:	00000000 	nop
10002efc:	a3a2081f 	sb	v0,2079(sp)
10002f00:	93a20028 	lbu	v0,40(sp)
10002f04:	0c000ac5 	jal	10002b14 <sobel>
10002f08:	a3a20820 	sb	v0,2080(sp)
10002f0c:	08000b6a 	j	10002da8 <worker+0xdc>
10002f10:	0040a825 	move	s5,v0
10002f14:	24060005 	li	a2,5
10002f18:	24070019 	li	a3,25
10002f1c:	00001825 	move	v1,zero
10002f20:	00651021 	addu	v0,v1,a1
10002f24:	27a80418 	addiu	t0,sp,1048
10002f28:	01022021 	addu	a0,t0,v0
10002f2c:	90840000 	lbu	a0,0(a0)
10002f30:	27a80818 	addiu	t0,sp,2072
10002f34:	01021021 	addu	v0,t0,v0
10002f38:	24630001 	addiu	v1,v1,1
10002f3c:	1466fff8 	bne	v1,a2,10002f20 <worker+0x254>
10002f40:	a0440000 	sb	a0,0(v0)
10002f44:	24a50005 	addiu	a1,a1,5
10002f48:	14a7fff5 	bne	a1,a3,10002f20 <worker+0x254>
10002f4c:	00001825 	move	v1,zero
10002f50:	0c000a95 	jal	10002a54 <gausian>
10002f54:	27a40818 	addiu	a0,sp,2072
10002f58:	08000b6a 	j	10002da8 <worker+0xdc>
10002f5c:	0040a825 	move	s5,v0

10002f60 <do_filter>:
10002f60:	27bdfba8 	addiu	sp,sp,-1112
10002f64:	30c600ff 	andi	a2,a2,0xff
10002f68:	24020001 	li	v0,1
10002f6c:	afbf0454 	sw	ra,1108(sp)
10002f70:	afbe0450 	sw	s8,1104(sp)
10002f74:	afb7044c 	sw	s7,1100(sp)
10002f78:	afb60448 	sw	s6,1096(sp)
10002f7c:	afb50444 	sw	s5,1092(sp)
10002f80:	afb40440 	sw	s4,1088(sp)
10002f84:	afb3043c 	sw	s3,1084(sp)
10002f88:	afb20438 	sw	s2,1080(sp)
10002f8c:	afb10434 	sw	s1,1076(sp)
10002f90:	afb00430 	sw	s0,1072(sp)
10002f94:	10c20084 	beq	a2,v0,100031a8 <do_filter+0x248>
10002f98:	afa6041c 	sw	a2,1052(sp)
10002f9c:	24170005 	li	s7,5
10002fa0:	18a0005c 	blez	a1,10003114 <do_filter+0x1b4>
10002fa4:	00000000 	nop
10002fa8:	1ee00002 	bgtz	s7,10002fb4 <do_filter+0x54>
10002fac:	02e01025 	move	v0,s7
10002fb0:	24020001 	li	v0,1
10002fb4:	00021600 	sll	v0,v0,0x18
10002fb8:	00021603 	sra	v0,v0,0x18
10002fbc:	1ae00078 	blez	s7,100031a0 <do_filter+0x240>
10002fc0:	24420001 	addiu	v0,v0,1
10002fc4:	26f0ffff 	addiu	s0,s7,-1
10002fc8:	00500018 	mult	v0,s0
10002fcc:	3c0d1000 	lui	t5,0x1000
10002fd0:	afa50428 	sw	a1,1064(sp)
10002fd4:	0080b025 	move	s6,a0
10002fd8:	00008825 	move	s1,zero
10002fdc:	00008025 	move	s0,zero
10002fe0:	24140002 	li	s4,2
10002fe4:	afa00418 	sw	zero,1048(sp)
10002fe8:	25be4f64 	addiu	s8,t5,20324
10002fec:	00001012 	mflo	v0
10002ff0:	24420001 	addiu	v0,v0,1
10002ff4:	afa20420 	sw	v0,1056(sp)
10002ff8:	8fa30418 	lw	v1,1048(sp)
10002ffc:	00000000 	nop
10003000:	18600057 	blez	v1,10003160 <do_filter+0x200>
10003004:	2ac20002 	slti	v0,s6,2
10003008:	1440003c 	bnez	v0,100030fc <do_filter+0x19c>
1000300c:	02366023 	subu	t4,s1,s6
10003010:	26c3ffff 	addiu	v1,s6,-1
10003014:	0200a825 	move	s5,s0
10003018:	afa30424 	sw	v1,1060(sp)
1000301c:	00009825 	move	s3,zero
10003020:	2592ffff 	addiu	s2,t4,-1
10003024:	8fa3041c 	lw	v1,1052(sp)
10003028:	02711021 	addu	v0,s3,s1
1000302c:	02a08025 	move	s0,s5
10003030:	afa2001c 	sw	v0,28(sp)
10003034:	a3a30018 	sb	v1,24(sp)
10003038:	00003825 	move	a3,zero
1000303c:	00f32021 	addu	a0,a3,s3
10003040:	02442021 	addu	a0,s2,a0
10003044:	03c42021 	addu	a0,s8,a0
10003048:	02001025 	move	v0,s0
1000304c:	27a30018 	addiu	v1,sp,24
10003050:	00622821 	addu	a1,v1,v0
10003054:	24420001 	addiu	v0,v0,1
10003058:	90860000 	lbu	a2,0(a0)
1000305c:	00501823 	subu	v1,v0,s0
10003060:	0077182a 	slt	v1,v1,s7
10003064:	a0a60008 	sb	a2,8(a1)
10003068:	1460fff8 	bnez	v1,1000304c <do_filter+0xec>
1000306c:	00962021 	addu	a0,a0,s6
10003070:	24e70001 	addiu	a3,a3,1
10003074:	00f7182a 	slt	v1,a3,s7
10003078:	1460fff0 	bnez	v1,1000303c <do_filter+0xdc>
1000307c:	00408025 	move	s0,v0
10003080:	2a820006 	slti	v0,s4,6
10003084:	1440002f 	bnez	v0,10003144 <do_filter+0x1e4>
10003088:	02801825 	move	v1,s4
1000308c:	24140003 	li	s4,3
10003090:	24030002 	li	v1,2
10003094:	3c041000 	lui	a0,0x1000
10003098:	00602825 	move	a1,v1
1000309c:	24844cb0 	addiu	a0,a0,19632
100030a0:	0c00044c 	jal	10001130 <printf>
100030a4:	afa3042c 	sw	v1,1068(sp)
100030a8:	24020001 	li	v0,1
100030ac:	8fa3042c 	lw	v1,1068(sp)
100030b0:	afa20010 	sw	v0,16(sp)
100030b4:	240201f4 	li	v0,500
100030b8:	27a60018 	addiu	a2,sp,24
100030bc:	afa20014 	sw	v0,20(sp)
100030c0:	00602025 	move	a0,v1
100030c4:	24051388 	li	a1,5000
100030c8:	0c00091f 	jal	1000247c <hf_sendack>
100030cc:	24070400 	li	a3,1024
100030d0:	00023400 	sll	a2,v0,0x10
100030d4:	00063403 	sra	a2,a2,0x10
100030d8:	14c0001c 	bnez	a2,1000314c <do_filter+0x1ec>
100030dc:	3c041000 	lui	a0,0x1000
100030e0:	8fa30420 	lw	v1,1056(sp)
100030e4:	26730001 	addiu	s3,s3,1
100030e8:	02a3a821 	addu	s5,s5,v1
100030ec:	8fa30424 	lw	v1,1060(sp)
100030f0:	00000000 	nop
100030f4:	1663ffcb 	bne	s3,v1,10003024 <do_filter+0xc4>
100030f8:	00000000 	nop
100030fc:	8fa30418 	lw	v1,1048(sp)
10003100:	8fa20428 	lw	v0,1064(sp)
10003104:	24630001 	addiu	v1,v1,1
10003108:	afa30418 	sw	v1,1048(sp)
1000310c:	1462ffba 	bne	v1,v0,10002ff8 <do_filter+0x98>
10003110:	02368821 	addu	s1,s1,s6
10003114:	8fbf0454 	lw	ra,1108(sp)
10003118:	8fbe0450 	lw	s8,1104(sp)
1000311c:	8fb7044c 	lw	s7,1100(sp)
10003120:	8fb60448 	lw	s6,1096(sp)
10003124:	8fb50444 	lw	s5,1092(sp)
10003128:	8fb40440 	lw	s4,1088(sp)
1000312c:	8fb3043c 	lw	s3,1084(sp)
10003130:	8fb20438 	lw	s2,1080(sp)
10003134:	8fb10434 	lw	s1,1076(sp)
10003138:	8fb00430 	lw	s0,1072(sp)
1000313c:	03e00008 	jr	ra
10003140:	27bd0458 	addiu	sp,sp,1112
10003144:	08000c25 	j	10003094 <do_filter+0x134>
10003148:	26940001 	addiu	s4,s4,1
1000314c:	24844cd0 	addiu	a0,a0,19664
10003150:	0c00044c 	jal	10001130 <printf>
10003154:	02802825 	move	a1,s4
10003158:	08000c38 	j	100030e0 <do_filter+0x180>
1000315c:	00000000 	nop
10003160:	8fa30428 	lw	v1,1064(sp)
10003164:	00000000 	nop
10003168:	2462ffff 	addiu	v0,v1,-1
1000316c:	8fa30418 	lw	v1,1048(sp)
10003170:	00000000 	nop
10003174:	0062102a 	slt	v0,v1,v0
10003178:	1440ffa3 	bnez	v0,10003008 <do_filter+0xa8>
1000317c:	2ac20002 	slti	v0,s6,2
10003180:	8fa30418 	lw	v1,1048(sp)
10003184:	8fa20428 	lw	v0,1064(sp)
10003188:	24630001 	addiu	v1,v1,1
1000318c:	afa30418 	sw	v1,1048(sp)
10003190:	1462ff99 	bne	v1,v0,10002ff8 <do_filter+0x98>
10003194:	02368821 	addu	s1,s1,s6
10003198:	08000c45 	j	10003114 <do_filter+0x1b4>
1000319c:	00000000 	nop
100031a0:	08000bf2 	j	10002fc8 <do_filter+0x68>
100031a4:	00008025 	move	s0,zero
100031a8:	08000be8 	j	10002fa0 <do_filter+0x40>
100031ac:	24170003 	li	s7,3

100031b0 <master>:
100031b0:	3c041000 	lui	a0,0x1000
100031b4:	27bdfbd0 	addiu	sp,sp,-1072
100031b8:	24844d00 	addiu	a0,a0,19712
100031bc:	afbf042c 	sw	ra,1068(sp)
100031c0:	afb30428 	sw	s3,1064(sp)
100031c4:	afb20424 	sw	s2,1060(sp)
100031c8:	afb10420 	sw	s1,1056(sp)
100031cc:	0c00044c 	jal	10001130 <printf>
100031d0:	afb0041c 	sw	s0,1052(sp)
100031d4:	0c000f22 	jal	10003c88 <hf_selfid>
100031d8:	00000000 	nop
100031dc:	00402025 	move	a0,v0
100031e0:	240503e8 	li	a1,1000
100031e4:	0c0006b8 	jal	10001ae0 <hf_comm_create>
100031e8:	00003025 	move	a2,zero
100031ec:	14400026 	bnez	v0,10003288 <master+0xd8>
100031f0:	00000000 	nop
100031f4:	3c111001 	lui	s1,0x1001
100031f8:	3c101001 	lui	s0,0x1001
100031fc:	8e246c98 	lw	a0,27800(s1)
10003200:	8e056c94 	lw	a1,27796(s0)
10003204:	0c000bd8 	jal	10002f60 <do_filter>
10003208:	00003025 	move	a2,zero
1000320c:	8e246c98 	lw	a0,27800(s1)
10003210:	8e056c94 	lw	a1,27796(s0)
10003214:	0c000bd8 	jal	10002f60 <do_filter>
10003218:	24060001 	li	a2,1
1000321c:	24020003 	li	v0,3
10003220:	a3a20018 	sb	v0,24(sp)
10003224:	24100002 	li	s0,2
10003228:	24130001 	li	s3,1
1000322c:	241201f4 	li	s2,500
10003230:	24110006 	li	s1,6
10003234:	02002025 	move	a0,s0
10003238:	afb30010 	sw	s3,16(sp)
1000323c:	26100001 	addiu	s0,s0,1
10003240:	afb20014 	sw	s2,20(sp)
10003244:	24051388 	li	a1,5000
10003248:	27a60018 	addiu	a2,sp,24
1000324c:	0c00091f 	jal	1000247c <hf_sendack>
10003250:	24070400 	li	a3,1024
10003254:	1611fff8 	bne	s0,s1,10003238 <master+0x88>
10003258:	02002025 	move	a0,s0
1000325c:	0c000f22 	jal	10003c88 <hf_selfid>
10003260:	00000000 	nop
10003264:	0c001051 	jal	10004144 <hf_kill>
10003268:	00402025 	move	a0,v0
1000326c:	8fbf042c 	lw	ra,1068(sp)
10003270:	8fb30428 	lw	s3,1064(sp)
10003274:	8fb20424 	lw	s2,1060(sp)
10003278:	8fb10420 	lw	s1,1056(sp)
1000327c:	8fb0041c 	lw	s0,1052(sp)
10003280:	03e00008 	jr	ra
10003284:	27bd0430 	addiu	sp,sp,1072
10003288:	0c000978 	jal	100025e0 <panic>
1000328c:	240400ff 	li	a0,255
10003290:	08000c7e 	j	100031f8 <master+0x48>
10003294:	3c111001 	lui	s1,0x1001

10003298 <app_main>:
10003298:	27bdffe0 	addiu	sp,sp,-32
1000329c:	afbf001c 	sw	ra,28(sp)
100032a0:	0c0006b6 	jal	10001ad8 <hf_cpuid>
100032a4:	00000000 	nop
100032a8:	1040001b 	beqz	v0,10003318 <app_main+0x80>
100032ac:	3c041000 	lui	a0,0x1000
100032b0:	0c0006b6 	jal	10001ad8 <hf_cpuid>
100032b4:	00000000 	nop
100032b8:	24030001 	li	v1,1
100032bc:	10430027 	beq	v0,v1,1000335c <app_main+0xc4>
100032c0:	3c041000 	lui	a0,0x1000
100032c4:	0c0006b6 	jal	10001ad8 <hf_cpuid>
100032c8:	00000000 	nop
100032cc:	3c041000 	lui	a0,0x1000
100032d0:	24844d60 	addiu	a0,a0,19808
100032d4:	0c00044c 	jal	10001130 <printf>
100032d8:	00402825 	move	a1,v0
100032dc:	3c021000 	lui	v0,0x1000
100032e0:	24424d74 	addiu	v0,v0,19828
100032e4:	afa20010 	sw	v0,16(sp)
100032e8:	3c041000 	lui	a0,0x1000
100032ec:	24021000 	li	v0,4096
100032f0:	afa20014 	sw	v0,20(sp)
100032f4:	24842ccc 	addiu	a0,a0,11468
100032f8:	00002825 	move	a1,zero
100032fc:	00003025 	move	a2,zero
10003300:	0c000f28 	jal	10003ca0 <hf_spawn>
10003304:	00003825 	move	a3,zero
10003308:	8fbf001c 	lw	ra,28(sp)
1000330c:	00000000 	nop
10003310:	03e00008 	jr	ra
10003314:	27bd0020 	addiu	sp,sp,32
10003318:	0c00044c 	jal	10001130 <printf>
1000331c:	24844d20 	addiu	a0,a0,19744
10003320:	3c021000 	lui	v0,0x1000
10003324:	24424d34 	addiu	v0,v0,19764
10003328:	afa20010 	sw	v0,16(sp)
1000332c:	3c041000 	lui	a0,0x1000
10003330:	24021000 	li	v0,4096
10003334:	afa20014 	sw	v0,20(sp)
10003338:	248431b0 	addiu	a0,a0,12720
1000333c:	00002825 	move	a1,zero
10003340:	00003025 	move	a2,zero
10003344:	0c000f28 	jal	10003ca0 <hf_spawn>
10003348:	00003825 	move	a3,zero
1000334c:	8fbf001c 	lw	ra,28(sp)
10003350:	00000000 	nop
10003354:	03e00008 	jr	ra
10003358:	27bd0020 	addiu	sp,sp,32
1000335c:	0c00044c 	jal	10001130 <printf>
10003360:	24844d3c 	addiu	a0,a0,19772
10003364:	3c021000 	lui	v0,0x1000
10003368:	24424d54 	addiu	v0,v0,19796
1000336c:	afa20010 	sw	v0,16(sp)
10003370:	3c041000 	lui	a0,0x1000
10003374:	24021000 	li	v0,4096
10003378:	afa20014 	sw	v0,20(sp)
1000337c:	24842788 	addiu	a0,a0,10120
10003380:	00002825 	move	a1,zero
10003384:	00003025 	move	a2,zero
10003388:	0c000f28 	jal	10003ca0 <hf_spawn>
1000338c:	00003825 	move	a3,zero
10003390:	8fbf001c 	lw	ra,28(sp)
10003394:	00000000 	nop
10003398:	03e00008 	jr	ra
1000339c:	27bd0020 	addiu	sp,sp,32

100033a0 <hf_schedlock>:
100033a0:	14800004 	bnez	a0,100033b4 <hf_schedlock+0x14>
100033a4:	24030001 	li	v1,1
100033a8:	3c021009 	lui	v0,0x1009
100033ac:	03e00008 	jr	ra
100033b0:	a4432134 	sh	v1,8500(v0)
100033b4:	3c021009 	lui	v0,0x1009
100033b8:	03e00008 	jr	ra
100033bc:	a4402134 	sh	zero,8500(v0)

100033c0 <hf_queue_create>:
100033c0:	27bdffe0 	addiu	sp,sp,-32
100033c4:	afb10018 	sw	s1,24(sp)
100033c8:	00808825 	move	s1,a0
100033cc:	afb00014 	sw	s0,20(sp)
100033d0:	afbf001c 	sw	ra,28(sp)
100033d4:	0c000552 	jal	10001548 <hf_malloc>
100033d8:	24040014 	li	a0,20
100033dc:	10400010 	beqz	v0,10003420 <hf_queue_create+0x60>
100033e0:	00408025 	move	s0,v0
100033e4:	26240001 	addiu	a0,s1,1
100033e8:	ac440000 	sw	a0,0(v0)
100033ec:	0c000552 	jal	10001548 <hf_malloc>
100033f0:	00042080 	sll	a0,a0,0x2
100033f4:	1040000c 	beqz	v0,10003428 <hf_queue_create+0x68>
100033f8:	ae020010 	sw	v0,16(s0)
100033fc:	ae00000c 	sw	zero,12(s0)
10003400:	ae000008 	sw	zero,8(s0)
10003404:	ae000004 	sw	zero,4(s0)
10003408:	02001025 	move	v0,s0
1000340c:	8fbf001c 	lw	ra,28(sp)
10003410:	8fb10018 	lw	s1,24(sp)
10003414:	8fb00014 	lw	s0,20(sp)
10003418:	03e00008 	jr	ra
1000341c:	27bd0020 	addiu	sp,sp,32
10003420:	08000d03 	j	1000340c <hf_queue_create+0x4c>
10003424:	00001025 	move	v0,zero
10003428:	0c000537 	jal	100014dc <hf_free>
1000342c:	02002025 	move	a0,s0
10003430:	08000d03 	j	1000340c <hf_queue_create+0x4c>
10003434:	00001025 	move	v0,zero

10003438 <hf_queue_count>:
10003438:	8c820004 	lw	v0,4(a0)
1000343c:	03e00008 	jr	ra
10003440:	00000000 	nop

10003444 <hf_queue_addtail>:
10003444:	8c820000 	lw	v0,0(a0)
10003448:	00000000 	nop
1000344c:	10400011 	beqz	v0,10003494 <hf_queue_addtail+0x50>
10003450:	00000000 	nop
10003454:	8c86000c 	lw	a2,12(a0)
10003458:	8c870008 	lw	a3,8(a0)
1000345c:	24c30001 	addiu	v1,a2,1
10003460:	0062001a 	div	zero,v1,v0
10003464:	00001810 	mfhi	v1
10003468:	10e3000a 	beq	a3,v1,10003494 <hf_queue_addtail+0x50>
1000346c:	00063080 	sll	a2,a2,0x2
10003470:	8c820010 	lw	v0,16(a0)
10003474:	8c870004 	lw	a3,4(a0)
10003478:	00463021 	addu	a2,v0,a2
1000347c:	24e70001 	addiu	a3,a3,1
10003480:	acc50000 	sw	a1,0(a2)
10003484:	00001025 	move	v0,zero
10003488:	ac83000c 	sw	v1,12(a0)
1000348c:	03e00008 	jr	ra
10003490:	ac870004 	sw	a3,4(a0)
10003494:	03e00008 	jr	ra
10003498:	2402ffff 	li	v0,-1

1000349c <hf_queue_remhead>:
1000349c:	8c820000 	lw	v0,0(a0)
100034a0:	00000000 	nop
100034a4:	10400011 	beqz	v0,100034ec <hf_queue_remhead+0x50>
100034a8:	00000000 	nop
100034ac:	8c850008 	lw	a1,8(a0)
100034b0:	8c83000c 	lw	v1,12(a0)
100034b4:	00000000 	nop
100034b8:	10a3000c 	beq	a1,v1,100034ec <hf_queue_remhead+0x50>
100034bc:	24a30001 	addiu	v1,a1,1
100034c0:	0062001a 	div	zero,v1,v0
100034c4:	8c820010 	lw	v0,16(a0)
100034c8:	8c860004 	lw	a2,4(a0)
100034cc:	00052880 	sll	a1,a1,0x2
100034d0:	00452821 	addu	a1,v0,a1
100034d4:	8ca20000 	lw	v0,0(a1)
100034d8:	24c5ffff 	addiu	a1,a2,-1
100034dc:	ac850004 	sw	a1,4(a0)
100034e0:	00001810 	mfhi	v1
100034e4:	03e00008 	jr	ra
100034e8:	ac830008 	sw	v1,8(a0)
100034ec:	03e00008 	jr	ra
100034f0:	00001025 	move	v0,zero

100034f4 <hf_queue_get>:
100034f4:	8c820000 	lw	v0,0(a0)
100034f8:	00000000 	nop
100034fc:	10400013 	beqz	v0,1000354c <hf_queue_get+0x58>
10003500:	00000000 	nop
10003504:	8c830004 	lw	v1,4(a0)
10003508:	00000000 	nop
1000350c:	00a3182a 	slt	v1,a1,v1
10003510:	1060000e 	beqz	v1,1000354c <hf_queue_get+0x58>
10003514:	00000000 	nop
10003518:	8c830008 	lw	v1,8(a0)
1000351c:	8c86000c 	lw	a2,12(a0)
10003520:	00000000 	nop
10003524:	10660009 	beq	v1,a2,1000354c <hf_queue_get+0x58>
10003528:	00a32821 	addu	a1,a1,v1
1000352c:	00a2001a 	div	zero,a1,v0
10003530:	8c840010 	lw	a0,16(a0)
10003534:	00001810 	mfhi	v1
10003538:	00031080 	sll	v0,v1,0x2
1000353c:	00821021 	addu	v0,a0,v0
10003540:	8c420000 	lw	v0,0(v0)
10003544:	03e00008 	jr	ra
10003548:	00000000 	nop
1000354c:	03e00008 	jr	ra
10003550:	00001025 	move	v0,zero

10003554 <hf_queue_swap>:
10003554:	8c830000 	lw	v1,0(a0)
10003558:	00000000 	nop
1000355c:	10600022 	beqz	v1,100035e8 <hf_queue_swap+0x94>
10003560:	00000000 	nop
10003564:	8c820004 	lw	v0,4(a0)
10003568:	00000000 	nop
1000356c:	00a2382a 	slt	a3,a1,v0
10003570:	10e0001d 	beqz	a3,100035e8 <hf_queue_swap+0x94>
10003574:	00000000 	nop
10003578:	00c2102a 	slt	v0,a2,v0
1000357c:	1040001a 	beqz	v0,100035e8 <hf_queue_swap+0x94>
10003580:	00000000 	nop
10003584:	8c870008 	lw	a3,8(a0)
10003588:	8c82000c 	lw	v0,12(a0)
1000358c:	00000000 	nop
10003590:	10e20015 	beq	a3,v0,100035e8 <hf_queue_swap+0x94>
10003594:	00c73021 	addu	a2,a2,a3
10003598:	00c3001a 	div	zero,a2,v1
1000359c:	00a72821 	addu	a1,a1,a3
100035a0:	8c880010 	lw	t0,16(a0)
100035a4:	00001025 	move	v0,zero
100035a8:	00003010 	mfhi	a2
100035ac:	00063080 	sll	a2,a2,0x2
100035b0:	00000000 	nop
100035b4:	00a3001a 	div	zero,a1,v1
100035b8:	01061821 	addu	v1,t0,a2
100035bc:	8c690000 	lw	t1,0(v1)
100035c0:	00003810 	mfhi	a3
100035c4:	00071880 	sll	v1,a3,0x2
100035c8:	01031821 	addu	v1,t0,v1
100035cc:	8c650000 	lw	a1,0(v1)
100035d0:	ac690000 	sw	t1,0(v1)
100035d4:	8c830010 	lw	v1,16(a0)
100035d8:	00000000 	nop
100035dc:	00663021 	addu	a2,v1,a2
100035e0:	03e00008 	jr	ra
100035e4:	acc50000 	sw	a1,0(a2)
100035e8:	03e00008 	jr	ra
100035ec:	2402ffff 	li	v0,-1

100035f0 <run_queue_next>:
100035f0:	27bdffe0 	addiu	sp,sp,-32
100035f4:	afb00014 	sw	s0,20(sp)
100035f8:	3c101009 	lui	s0,0x1009
100035fc:	8e04212c 	lw	a0,8492(s0)
10003600:	afb10018 	sw	s1,24(sp)
10003604:	afbf001c 	sw	ra,28(sp)
10003608:	0c000d27 	jal	1000349c <hf_queue_remhead>
1000360c:	3c111009 	lui	s1,0x1009
10003610:	00402825 	move	a1,v0
10003614:	10400010 	beqz	v0,10003658 <run_queue_next+0x68>
10003618:	ae22211c 	sw	v0,8476(s1)
1000361c:	8e04212c 	lw	a0,8492(s0)
10003620:	0c000d11 	jal	10003444 <hf_queue_addtail>
10003624:	00000000 	nop
10003628:	14400006 	bnez	v0,10003644 <run_queue_next+0x54>
1000362c:	24040009 	li	a0,9
10003630:	8fbf001c 	lw	ra,28(sp)
10003634:	8fb10018 	lw	s1,24(sp)
10003638:	8fb00014 	lw	s0,20(sp)
1000363c:	03e00008 	jr	ra
10003640:	27bd0020 	addiu	sp,sp,32
10003644:	8fbf001c 	lw	ra,28(sp)
10003648:	8fb10018 	lw	s1,24(sp)
1000364c:	8fb00014 	lw	s0,20(sp)
10003650:	08000978 	j	100025e0 <panic>
10003654:	27bd0020 	addiu	sp,sp,32
10003658:	0c000978 	jal	100025e0 <panic>
1000365c:	24040005 	li	a0,5
10003660:	8e25211c 	lw	a1,8476(s1)
10003664:	08000d87 	j	1000361c <run_queue_next+0x2c>
10003668:	00000000 	nop

1000366c <dispatch_isr>:
1000366c:	27bdffd0 	addiu	sp,sp,-48
10003670:	afbf002c 	sw	ra,44(sp)
10003674:	afb40028 	sw	s4,40(sp)
10003678:	afb30024 	sw	s3,36(sp)
1000367c:	afb20020 	sw	s2,32(sp)
10003680:	afb1001c 	sw	s1,28(sp)
10003684:	0c00014c 	jal	10000530 <_timer_reset>
10003688:	afb00018 	sw	s0,24(sp)
1000368c:	3c021009 	lui	v0,0x1009
10003690:	94422134 	lhu	v0,8500(v0)
10003694:	00000000 	nop
10003698:	1040006a 	beqz	v0,10003844 <dispatch_isr+0x1d8>
1000369c:	3c021009 	lui	v0,0x1009
100036a0:	94442118 	lhu	a0,8472(v0)
100036a4:	00000000 	nop
100036a8:	00041880 	sll	v1,a0,0x2
100036ac:	00041100 	sll	v0,a0,0x4
100036b0:	00621021 	addu	v0,v1,v0
100036b4:	00441023 	subu	v0,v0,a0
100036b8:	000210c0 	sll	v0,v0,0x3
100036bc:	3c031001 	lui	v1,0x1001
100036c0:	24636d5c 	addiu	v1,v1,27996
100036c4:	24440038 	addiu	a0,v0,56
100036c8:	00642021 	addu	a0,v1,a0
100036cc:	00621021 	addu	v0,v1,v0
100036d0:	3c031009 	lui	v1,0x1009
100036d4:	0c00008f 	jal	1000023c <setjmp>
100036d8:	ac62211c 	sw	v0,8476(v1)
100036dc:	14400059 	bnez	v0,10003844 <dispatch_isr+0x1d8>
100036e0:	3c021009 	lui	v0,0x1009
100036e4:	8c42211c 	lw	v0,8476(v0)
100036e8:	24030002 	li	v1,2
100036ec:	90440016 	lbu	a0,22(v0)
100036f0:	00000000 	nop
100036f4:	10830077 	beq	a0,v1,100038d4 <dispatch_isr+0x268>
100036f8:	24030001 	li	v1,1
100036fc:	8c42008c 	lw	v0,140(v0)
10003700:	00000000 	nop
10003704:	8c430000 	lw	v1,0(v0)
10003708:	3c02b00b 	lui	v0,0xb00b
1000370c:	3442b00b 	ori	v0,v0,0xb00b
10003710:	10620004 	beq	v1,v0,10003724 <dispatch_isr+0xb8>
10003714:	3c021009 	lui	v0,0x1009
10003718:	0c000978 	jal	100025e0 <panic>
1000371c:	24040002 	li	a0,2
10003720:	3c021009 	lui	v0,0x1009
10003724:	94422124 	lhu	v0,8484(v0)
10003728:	00000000 	nop
1000372c:	1040004d 	beqz	v0,10003864 <dispatch_isr+0x1f8>
10003730:	3c111009 	lui	s1,0x1009
10003734:	8e242138 	lw	a0,8504(s1)
10003738:	0c000d0e 	jal	10003438 <hf_queue_count>
1000373c:	00008025 	move	s0,zero
10003740:	18400023 	blez	v0,100037d0 <dispatch_isr+0x164>
10003744:	00409025 	move	s2,v0
10003748:	3c141009 	lui	s4,0x1009
1000374c:	08000ddd 	j	10003774 <dispatch_isr+0x108>
10003750:	3c131009 	lui	s3,0x1009
10003754:	8e642130 	lw	a0,8496(s3)
10003758:	0c000d11 	jal	10003444 <hf_queue_addtail>
1000375c:	00402825 	move	a1,v0
10003760:	14400053 	bnez	v0,100038b0 <dispatch_isr+0x244>
10003764:	00000000 	nop
10003768:	26100001 	addiu	s0,s0,1
1000376c:	12120018 	beq	s0,s2,100037d0 <dispatch_isr+0x164>
10003770:	00000000 	nop
10003774:	8e242138 	lw	a0,8504(s1)
10003778:	0c000d27 	jal	1000349c <hf_queue_remhead>
1000377c:	00000000 	nop
10003780:	1040004f 	beqz	v0,100038c0 <dispatch_isr+0x254>
10003784:	24040007 	li	a0,7
10003788:	8c43001c 	lw	v1,28(v0)
1000378c:	00000000 	nop
10003790:	2463ffff 	addiu	v1,v1,-1
10003794:	1460003d 	bnez	v1,1000388c <dispatch_isr+0x220>
10003798:	ac43001c 	sw	v1,28(v0)
1000379c:	9443002c 	lhu	v1,44(v0)
100037a0:	00000000 	nop
100037a4:	1460ffeb 	bnez	v1,10003754 <dispatch_isr+0xe8>
100037a8:	00000000 	nop
100037ac:	8e84212c 	lw	a0,8492(s4)
100037b0:	0c000d11 	jal	10003444 <hf_queue_addtail>
100037b4:	00402825 	move	a1,v0
100037b8:	1040ffeb 	beqz	v0,10003768 <dispatch_isr+0xfc>
100037bc:	24040009 	li	a0,9
100037c0:	0c000978 	jal	100025e0 <panic>
100037c4:	26100001 	addiu	s0,s0,1
100037c8:	1612ffea 	bne	s0,s2,10003774 <dispatch_isr+0x108>
100037cc:	00000000 	nop
100037d0:	3c101009 	lui	s0,0x1009
100037d4:	8e02204c 	lw	v0,8268(s0)
100037d8:	00000000 	nop
100037dc:	0040f809 	jalr	v0
100037e0:	3c111009 	lui	s1,0x1009
100037e4:	3046ffff 	andi	a2,v0,0xffff
100037e8:	14c00008 	bnez	a2,1000380c <dispatch_isr+0x1a0>
100037ec:	a6262118 	sh	a2,8472(s1)
100037f0:	2610204c 	addiu	s0,s0,8268
100037f4:	8e020004 	lw	v0,4(s0)
100037f8:	00000000 	nop
100037fc:	0040f809 	jalr	v0
10003800:	00000000 	nop
10003804:	3046ffff 	andi	a2,v0,0xffff
10003808:	a6262118 	sh	a2,8472(s1)
1000380c:	3c021009 	lui	v0,0x1009
10003810:	2442204c 	addiu	v0,v0,8268
10003814:	3c031009 	lui	v1,0x1009
10003818:	8c65211c 	lw	a1,8476(v1)
1000381c:	8c43000c 	lw	v1,12(v0)
10003820:	24070002 	li	a3,2
10003824:	24a40038 	addiu	a0,a1,56
10003828:	24630001 	addiu	v1,v1,1
1000382c:	a0a70016 	sb	a3,22(a1)
10003830:	24050001 	li	a1,1
10003834:	0c0000ab 	jal	100002ac <_restoreexec>
10003838:	ac43000c 	sw	v1,12(v0)
1000383c:	0c000978 	jal	100025e0 <panic>
10003840:	240400ff 	li	a0,255
10003844:	8fbf002c 	lw	ra,44(sp)
10003848:	8fb40028 	lw	s4,40(sp)
1000384c:	8fb30024 	lw	s3,36(sp)
10003850:	8fb20020 	lw	s2,32(sp)
10003854:	8fb1001c 	lw	s1,28(sp)
10003858:	8fb00018 	lw	s0,24(sp)
1000385c:	03e00008 	jr	ra
10003860:	27bd0030 	addiu	sp,sp,48
10003864:	0c000978 	jal	100025e0 <panic>
10003868:	24040003 	li	a0,3
1000386c:	8fbf002c 	lw	ra,44(sp)
10003870:	8fb40028 	lw	s4,40(sp)
10003874:	8fb30024 	lw	s3,36(sp)
10003878:	8fb20020 	lw	s2,32(sp)
1000387c:	8fb1001c 	lw	s1,28(sp)
10003880:	8fb00018 	lw	s0,24(sp)
10003884:	03e00008 	jr	ra
10003888:	27bd0030 	addiu	sp,sp,48
1000388c:	8e242138 	lw	a0,8504(s1)
10003890:	0c000d11 	jal	10003444 <hf_queue_addtail>
10003894:	00402825 	move	a1,v0
10003898:	1040ffb3 	beqz	v0,10003768 <dispatch_isr+0xfc>
1000389c:	00000000 	nop
100038a0:	0c000978 	jal	100025e0 <panic>
100038a4:	2404000a 	li	a0,10
100038a8:	08000ddb 	j	1000376c <dispatch_isr+0x100>
100038ac:	26100001 	addiu	s0,s0,1
100038b0:	0c000978 	jal	100025e0 <panic>
100038b4:	2404000b 	li	a0,11
100038b8:	08000ddb 	j	1000376c <dispatch_isr+0x100>
100038bc:	26100001 	addiu	s0,s0,1
100038c0:	0c000978 	jal	100025e0 <panic>
100038c4:	afa20010 	sw	v0,16(sp)
100038c8:	8fa20010 	lw	v0,16(sp)
100038cc:	08000de2 	j	10003788 <dispatch_isr+0x11c>
100038d0:	00000000 	nop
100038d4:	08000dbf 	j	100036fc <dispatch_isr+0x90>
100038d8:	a0430016 	sb	v1,22(v0)

100038dc <sched_priorityrr>:
100038dc:	3c021009 	lui	v0,0x1009
100038e0:	8c44212c 	lw	a0,8492(v0)
100038e4:	27bdffd0 	addiu	sp,sp,-48
100038e8:	afb2001c 	sw	s2,28(sp)
100038ec:	afbf002c 	sw	ra,44(sp)
100038f0:	afb50028 	sw	s5,40(sp)
100038f4:	afb40024 	sw	s4,36(sp)
100038f8:	afb30020 	sw	s3,32(sp)
100038fc:	afb10018 	sw	s1,24(sp)
10003900:	0c000d0e 	jal	10003438 <hf_queue_count>
10003904:	afb00014 	sw	s0,20(sp)
10003908:	10400046 	beqz	v0,10003a24 <sched_priorityrr+0x148>
1000390c:	00409025 	move	s2,v0
10003910:	0c000d7c 	jal	100035f0 <run_queue_next>
10003914:	00000000 	nop
10003918:	1a400046 	blez	s2,10003a34 <sched_priorityrr+0x158>
1000391c:	241400ff 	li	s4,255
10003920:	00008825 	move	s1,zero
10003924:	00008025 	move	s0,zero
10003928:	3c131009 	lui	s3,0x1009
1000392c:	24150003 	li	s5,3
10003930:	0c000d7c 	jal	100035f0 <run_queue_next>
10003934:	26100001 	addiu	s0,s0,1
10003938:	8e63211c 	lw	v1,8476(s3)
1000393c:	00000000 	nop
10003940:	90640019 	lbu	a0,25(v1)
10003944:	00000000 	nop
10003948:	10800025 	beqz	a0,100039e0 <sched_priorityrr+0x104>
1000394c:	00000000 	nop
10003950:	90620016 	lbu	v0,22(v1)
10003954:	00000000 	nop
10003958:	1455002f 	bne	v0,s5,10003a18 <sched_priorityrr+0x13c>
1000395c:	00000000 	nop
10003960:	1612fff3 	bne	s0,s2,10003930 <sched_priorityrr+0x54>
10003964:	00000000 	nop
10003968:	00008025 	move	s0,zero
1000396c:	0c000d7c 	jal	100035f0 <run_queue_next>
10003970:	26100001 	addiu	s0,s0,1
10003974:	8e62211c 	lw	v0,8476(s3)
10003978:	00000000 	nop
1000397c:	12220006 	beq	s1,v0,10003998 <sched_priorityrr+0xbc>
10003980:	0212202a 	slt	a0,s0,s2
10003984:	90430018 	lbu	v1,24(v0)
10003988:	92250018 	lbu	a1,24(s1)
1000398c:	00000000 	nop
10003990:	00651823 	subu	v1,v1,a1
10003994:	a0430018 	sb	v1,24(v0)
10003998:	1480fff4 	bnez	a0,1000396c <sched_priorityrr+0x90>
1000399c:	00000000 	nop
100039a0:	92220017 	lbu	v0,23(s1)
100039a4:	ae71211c 	sw	s1,8476(s3)
100039a8:	a2220018 	sb	v0,24(s1)
100039ac:	8e230024 	lw	v1,36(s1)
100039b0:	8fbf002c 	lw	ra,44(sp)
100039b4:	24630001 	addiu	v1,v1,1
100039b8:	96220000 	lhu	v0,0(s1)
100039bc:	ae230024 	sw	v1,36(s1)
100039c0:	8fb50028 	lw	s5,40(sp)
100039c4:	8fb40024 	lw	s4,36(sp)
100039c8:	8fb30020 	lw	s3,32(sp)
100039cc:	8fb2001c 	lw	s2,28(sp)
100039d0:	8fb10018 	lw	s1,24(sp)
100039d4:	8fb00014 	lw	s0,20(sp)
100039d8:	03e00008 	jr	ra
100039dc:	27bd0030 	addiu	sp,sp,48
100039e0:	90640018 	lbu	a0,24(v1)
100039e4:	00000000 	nop
100039e8:	0094102b 	sltu	v0,a0,s4
100039ec:	1040ffdc 	beqz	v0,10003960 <sched_priorityrr+0x84>
100039f0:	00000000 	nop
100039f4:	90620016 	lbu	v0,22(v1)
100039f8:	00000000 	nop
100039fc:	1055ffd8 	beq	v0,s5,10003960 <sched_priorityrr+0x84>
10003a00:	00000000 	nop
10003a04:	00608825 	move	s1,v1
10003a08:	1612ffc9 	bne	s0,s2,10003930 <sched_priorityrr+0x54>
10003a0c:	0080a025 	move	s4,a0
10003a10:	08000e5b 	j	1000396c <sched_priorityrr+0x90>
10003a14:	00008025 	move	s0,zero
10003a18:	00608825 	move	s1,v1
10003a1c:	08000e6b 	j	100039ac <sched_priorityrr+0xd0>
10003a20:	a0600019 	sb	zero,25(v1)
10003a24:	0c000978 	jal	100025e0 <panic>
10003a28:	24040005 	li	a0,5
10003a2c:	0c000d7c 	jal	100035f0 <run_queue_next>
10003a30:	00000000 	nop
10003a34:	00008825 	move	s1,zero
10003a38:	08000e68 	j	100039a0 <sched_priorityrr+0xc4>
10003a3c:	3c131009 	lui	s3,0x1009

10003a40 <sched_rma>:
10003a40:	27bdffc8 	addiu	sp,sp,-56
10003a44:	afb10018 	sw	s1,24(sp)
10003a48:	3c111009 	lui	s1,0x1009
10003a4c:	8e242130 	lw	a0,8496(s1)
10003a50:	afb30020 	sw	s3,32(sp)
10003a54:	afbf0034 	sw	ra,52(sp)
10003a58:	afb70030 	sw	s7,48(sp)
10003a5c:	afb6002c 	sw	s6,44(sp)
10003a60:	afb50028 	sw	s5,40(sp)
10003a64:	afb40024 	sw	s4,36(sp)
10003a68:	afb2001c 	sw	s2,28(sp)
10003a6c:	0c000d0e 	jal	10003438 <hf_queue_count>
10003a70:	afb00014 	sw	s0,20(sp)
10003a74:	10400082 	beqz	v0,10003c80 <sched_rma+0x240>
10003a78:	00409825 	move	s3,v0
10003a7c:	2456ffff 	addiu	s6,v0,-1
10003a80:	00009025 	move	s2,zero
10003a84:	0256102a 	slt	v0,s2,s6
10003a88:	10400024 	beqz	v0,10003b1c <sched_rma+0xdc>
10003a8c:	0220a825 	move	s5,s1
10003a90:	26540001 	addiu	s4,s2,1
10003a94:	0293102a 	slt	v0,s4,s3
10003a98:	14400006 	bnez	v0,10003ab4 <sched_rma+0x74>
10003a9c:	02808025 	move	s0,s4
10003aa0:	08000ec4 	j	10003b10 <sched_rma+0xd0>
10003aa4:	02809025 	move	s2,s4
10003aa8:	26100001 	addiu	s0,s0,1
10003aac:	12130017 	beq	s0,s3,10003b0c <sched_rma+0xcc>
10003ab0:	00000000 	nop
10003ab4:	8e242130 	lw	a0,8496(s1)
10003ab8:	0c000d3d 	jal	100034f4 <hf_queue_get>
10003abc:	02402825 	move	a1,s2
10003ac0:	8e242130 	lw	a0,8496(s1)
10003ac4:	02002825 	move	a1,s0
10003ac8:	0c000d3d 	jal	100034f4 <hf_queue_get>
10003acc:	0040b825 	move	s7,v0
10003ad0:	9444002c 	lhu	a0,44(v0)
10003ad4:	96e3002c 	lhu	v1,44(s7)
10003ad8:	00000000 	nop
10003adc:	0083182b 	sltu	v1,a0,v1
10003ae0:	1060fff1 	beqz	v1,10003aa8 <sched_rma+0x68>
10003ae4:	02003025 	move	a2,s0
10003ae8:	8ea42130 	lw	a0,8496(s5)
10003aec:	0c000d55 	jal	10003554 <hf_queue_swap>
10003af0:	02402825 	move	a1,s2
10003af4:	1040ffec 	beqz	v0,10003aa8 <sched_rma+0x68>
10003af8:	2404000c 	li	a0,12
10003afc:	0c000978 	jal	100025e0 <panic>
10003b00:	26100001 	addiu	s0,s0,1
10003b04:	1613ffeb 	bne	s0,s3,10003ab4 <sched_rma+0x74>
10003b08:	00000000 	nop
10003b0c:	02809025 	move	s2,s4
10003b10:	0256102a 	slt	v0,s2,s6
10003b14:	1440ffdf 	bnez	v0,10003a94 <sched_rma+0x54>
10003b18:	26540001 	addiu	s4,s2,1
10003b1c:	1a600037 	blez	s3,10003bfc <sched_rma+0x1bc>
10003b20:	3c121009 	lui	s2,0x1009
10003b24:	0000a025 	move	s4,zero
10003b28:	00008025 	move	s0,zero
10003b2c:	0240b025 	move	s6,s2
10003b30:	24150003 	li	s5,3
10003b34:	8e242130 	lw	a0,8496(s1)
10003b38:	0c000d27 	jal	1000349c <hf_queue_remhead>
10003b3c:	00000000 	nop
10003b40:	00402825 	move	a1,v0
10003b44:	10400049 	beqz	v0,10003c6c <sched_rma+0x22c>
10003b48:	ae42211c 	sw	v0,8476(s2)
10003b4c:	8e242130 	lw	a0,8496(s1)
10003b50:	0c000d11 	jal	10003444 <hf_queue_addtail>
10003b54:	00000000 	nop
10003b58:	10400003 	beqz	v0,10003b68 <sched_rma+0x128>
10003b5c:	00000000 	nop
10003b60:	0c000978 	jal	100025e0 <panic>
10003b64:	2404000b 	li	a0,11
10003b68:	8e43211c 	lw	v1,8476(s2)
10003b6c:	00000000 	nop
10003b70:	90620016 	lbu	v0,22(v1)
10003b74:	00000000 	nop
10003b78:	10550009 	beq	v0,s5,10003ba0 <sched_rma+0x160>
10003b7c:	00000000 	nop
10003b80:	94620032 	lhu	v0,50(v1)
10003b84:	00000000 	nop
10003b88:	10400005 	beqz	v0,10003ba0 <sched_rma+0x160>
10003b8c:	00000000 	nop
10003b90:	16800003 	bnez	s4,10003ba0 <sched_rma+0x160>
10003b94:	2442ffff 	addiu	v0,v0,-1
10003b98:	94740000 	lhu	s4,0(v1)
10003b9c:	a4620032 	sh	v0,50(v1)
10003ba0:	94640034 	lhu	a0,52(v1)
10003ba4:	00000000 	nop
10003ba8:	2484ffff 	addiu	a0,a0,-1
10003bac:	3084ffff 	andi	a0,a0,0xffff
10003bb0:	1480000d 	bnez	a0,10003be8 <sched_rma+0x1a8>
10003bb4:	a4640034 	sh	a0,52(v1)
10003bb8:	9464002c 	lhu	a0,44(v1)
10003bbc:	94620032 	lhu	v0,50(v1)
10003bc0:	00000000 	nop
10003bc4:	10400005 	beqz	v0,10003bdc <sched_rma+0x19c>
10003bc8:	a4640034 	sh	a0,52(v1)
10003bcc:	8c620028 	lw	v0,40(v1)
10003bd0:	00000000 	nop
10003bd4:	24420001 	addiu	v0,v0,1
10003bd8:	ac620028 	sw	v0,40(v1)
10003bdc:	9462002e 	lhu	v0,46(v1)
10003be0:	00000000 	nop
10003be4:	a4620032 	sh	v0,50(v1)
10003be8:	26100001 	addiu	s0,s0,1
10003bec:	1613ffd1 	bne	s0,s3,10003b34 <sched_rma+0xf4>
10003bf0:	00000000 	nop
10003bf4:	16800010 	bnez	s4,10003c38 <sched_rma+0x1f8>
10003bf8:	00141880 	sll	v1,s4,0x2
10003bfc:	3c021001 	lui	v0,0x1001
10003c00:	24426d5c 	addiu	v0,v0,27996
10003c04:	ae42211c 	sw	v0,8476(s2)
10003c08:	00001025 	move	v0,zero
10003c0c:	8fbf0034 	lw	ra,52(sp)
10003c10:	8fb70030 	lw	s7,48(sp)
10003c14:	8fb6002c 	lw	s6,44(sp)
10003c18:	8fb50028 	lw	s5,40(sp)
10003c1c:	8fb40024 	lw	s4,36(sp)
10003c20:	8fb30020 	lw	s3,32(sp)
10003c24:	8fb2001c 	lw	s2,28(sp)
10003c28:	8fb10018 	lw	s1,24(sp)
10003c2c:	8fb00014 	lw	s0,20(sp)
10003c30:	03e00008 	jr	ra
10003c34:	27bd0038 	addiu	sp,sp,56
10003c38:	00142100 	sll	a0,s4,0x4
10003c3c:	00641821 	addu	v1,v1,a0
10003c40:	00741823 	subu	v1,v1,s4
10003c44:	000320c0 	sll	a0,v1,0x3
10003c48:	3c031001 	lui	v1,0x1001
10003c4c:	24636d5c 	addiu	v1,v1,27996
10003c50:	00641821 	addu	v1,v1,a0
10003c54:	8c640020 	lw	a0,32(v1)
10003c58:	02801025 	move	v0,s4
10003c5c:	24840001 	addiu	a0,a0,1
10003c60:	ae43211c 	sw	v1,8476(s2)
10003c64:	08000f03 	j	10003c0c <sched_rma+0x1cc>
10003c68:	ac640020 	sw	a0,32(v1)
10003c6c:	0c000978 	jal	100025e0 <panic>
10003c70:	24040006 	li	a0,6
10003c74:	8ec5211c 	lw	a1,8476(s6)
10003c78:	08000ed3 	j	10003b4c <sched_rma+0x10c>
10003c7c:	00000000 	nop
10003c80:	08000f03 	j	10003c0c <sched_rma+0x1cc>
10003c84:	00001025 	move	v0,zero

10003c88 <hf_selfid>:
10003c88:	3c021009 	lui	v0,0x1009
10003c8c:	8c42211c 	lw	v0,8476(v0)
10003c90:	00000000 	nop
10003c94:	94420000 	lhu	v0,0(v0)
10003c98:	03e00008 	jr	ra
10003c9c:	00000000 	nop

10003ca0 <hf_spawn>:
10003ca0:	27bdffa0 	addiu	sp,sp,-96
10003ca4:	afb40048 	sw	s4,72(sp)
10003ca8:	afb1003c 	sw	s1,60(sp)
10003cac:	30d4ffff 	andi	s4,a2,0xffff
10003cb0:	30b1ffff 	andi	s1,a1,0xffff
10003cb4:	0234102b 	sltu	v0,s1,s4
10003cb8:	afb5004c 	sw	s5,76(sp)
10003cbc:	afbf005c 	sw	ra,92(sp)
10003cc0:	afbe0058 	sw	s8,88(sp)
10003cc4:	afb70054 	sw	s7,84(sp)
10003cc8:	afb60050 	sw	s6,80(sp)
10003ccc:	afb30044 	sw	s3,68(sp)
10003cd0:	afb20040 	sw	s2,64(sp)
10003cd4:	afb00038 	sw	s0,56(sp)
10003cd8:	30f5ffff 	andi	s5,a3,0xffff
10003cdc:	afa00028 	sw	zero,40(sp)
10003ce0:	14400097 	bnez	v0,10003f40 <hf_spawn+0x2a0>
10003ce4:	2402ff9b 	li	v0,-101
10003ce8:	02b4102b 	sltu	v0,s5,s4
10003cec:	144000aa 	bnez	v0,10003f98 <hf_spawn+0x2f8>
10003cf0:	00808025 	move	s0,a0
10003cf4:	0c00007b 	jal	100001ec <_interrupt_set>
10003cf8:	00002025 	move	a0,zero
10003cfc:	afa2002c 	sw	v0,44(sp)
10003d00:	8fa40028 	lw	a0,40(sp)
10003d04:	3c121001 	lui	s2,0x1001
10003d08:	00041880 	sll	v1,a0,0x2
10003d0c:	00041100 	sll	v0,a0,0x4
10003d10:	00621021 	addu	v0,v1,v0
10003d14:	00441023 	subu	v0,v0,a0
10003d18:	000210c0 	sll	v0,v0,0x3
10003d1c:	26526d5c 	addiu	s2,s2,27996
10003d20:	02421021 	addu	v0,s2,v0
10003d24:	8c420088 	lw	v0,136(v0)
10003d28:	00000000 	nop
10003d2c:	14400013 	bnez	v0,10003d7c <hf_spawn+0xdc>
10003d30:	00000000 	nop
10003d34:	08000f64 	j	10003d90 <hf_spawn+0xf0>
10003d38:	00000000 	nop
10003d3c:	8fa20028 	lw	v0,40(sp)
10003d40:	00000000 	nop
10003d44:	24420001 	addiu	v0,v0,1
10003d48:	afa20028 	sw	v0,40(sp)
10003d4c:	8fa80028 	lw	t0,40(sp)
10003d50:	00000000 	nop
10003d54:	00081880 	sll	v1,t0,0x2
10003d58:	00081100 	sll	v0,t0,0x4
10003d5c:	00621021 	addu	v0,v1,v0
10003d60:	00481023 	subu	v0,v0,t0
10003d64:	000210c0 	sll	v0,v0,0x3
10003d68:	02421021 	addu	v0,s2,v0
10003d6c:	8c420088 	lw	v0,136(v0)
10003d70:	00000000 	nop
10003d74:	10400006 	beqz	v0,10003d90 <hf_spawn+0xf0>
10003d78:	00000000 	nop
10003d7c:	8fa20028 	lw	v0,40(sp)
10003d80:	00000000 	nop
10003d84:	2c42001e 	sltiu	v0,v0,30
10003d88:	1440ffec 	bnez	v0,10003d3c <hf_spawn+0x9c>
10003d8c:	00000000 	nop
10003d90:	8fa30028 	lw	v1,40(sp)
10003d94:	2402001e 	li	v0,30
10003d98:	10620090 	beq	v1,v0,10003fdc <hf_spawn+0x33c>
10003d9c:	3c041000 	lui	a0,0x1000
10003da0:	8fa40028 	lw	a0,40(sp)
10003da4:	3c1e1009 	lui	s8,0x1009
10003da8:	00041880 	sll	v1,a0,0x2
10003dac:	00041100 	sll	v0,a0,0x4
10003db0:	00621021 	addu	v0,v1,v0
10003db4:	00441023 	subu	v0,v0,a0
10003db8:	8fa70028 	lw	a3,40(sp)
10003dbc:	97c32124 	lhu	v1,8484(s8)
10003dc0:	000210c0 	sll	v0,v0,0x3
10003dc4:	02421021 	addu	v0,s2,v0
10003dc8:	8fa50070 	lw	a1,112(sp)
10003dcc:	3c161009 	lui	s6,0x1009
10003dd0:	24060014 	li	a2,20
10003dd4:	24630001 	addiu	v1,v1,1
10003dd8:	a4470000 	sh	a3,0(v0)
10003ddc:	24440002 	addiu	a0,v0,2
10003de0:	a7c32124 	sh	v1,8484(s8)
10003de4:	0c000423 	jal	1000108c <strncpy>
10003de8:	aec2211c 	sw	v0,8476(s6)
10003dec:	8fb70074 	lw	s7,116(sp)
10003df0:	8ed3211c 	lw	s3,8476(s6)
10003df4:	26f70003 	addiu	s7,s7,3
10003df8:	0017b882 	srl	s7,s7,0x2
10003dfc:	0017b880 	sll	s7,s7,0x2
10003e00:	24020064 	li	v0,100
10003e04:	02e02025 	move	a0,s7
10003e08:	ae700088 	sw	s0,136(s3)
10003e0c:	a2600016 	sb	zero,22(s3)
10003e10:	a2620017 	sb	v0,23(s3)
10003e14:	a2620018 	sb	v0,24(s3)
10003e18:	ae60001c 	sw	zero,28(s3)
10003e1c:	a671002c 	sh	s1,44(s3)
10003e20:	a674002e 	sh	s4,46(s3)
10003e24:	a6750030 	sh	s5,48(s3)
10003e28:	a6740032 	sh	s4,50(s3)
10003e2c:	a6750034 	sh	s5,52(s3)
10003e30:	ae600020 	sw	zero,32(s3)
10003e34:	ae600024 	sw	zero,36(s3)
10003e38:	ae600028 	sw	zero,40(s3)
10003e3c:	0c000552 	jal	10001548 <hf_malloc>
10003e40:	ae770090 	sw	s7,144(s3)
10003e44:	8ec3211c 	lw	v1,8476(s6)
10003e48:	ae62008c 	sw	v0,140(s3)
10003e4c:	8c65008c 	lw	a1,140(v1)
10003e50:	94640000 	lhu	a0,0(v1)
10003e54:	24a5fffc 	addiu	a1,a1,-4
10003e58:	0c000100 	jal	10000400 <_set_task_sp>
10003e5c:	00b72821 	addu	a1,a1,s7
10003e60:	8ec2211c 	lw	v0,8476(s6)
10003e64:	00000000 	nop
10003e68:	94440000 	lhu	a0,0(v0)
10003e6c:	8c450088 	lw	a1,136(v0)
10003e70:	0c000117 	jal	1000045c <_set_task_tp>
10003e74:	00000000 	nop
10003e78:	8ed0211c 	lw	s0,8476(s6)
10003e7c:	00000000 	nop
10003e80:	8e03008c 	lw	v1,140(s0)
10003e84:	00000000 	nop
10003e88:	10600045 	beqz	v1,10003fa0 <hf_spawn+0x300>
10003e8c:	3c041000 	lui	a0,0x1000
10003e90:	96130000 	lhu	s3,0(s0)
10003e94:	3c02b00b 	lui	v0,0xb00b
10003e98:	9605002e 	lhu	a1,46(s0)
10003e9c:	3442b00b 	ori	v0,v0,0xb00b
10003ea0:	9614002c 	lhu	s4,44(s0)
10003ea4:	961e0030 	lhu	s8,48(s0)
10003ea8:	8e150088 	lw	s5,136(s0)
10003eac:	02602025 	move	a0,s3
10003eb0:	ac620000 	sw	v0,0(v1)
10003eb4:	0c00010b 	jal	1000042c <_get_task_sp>
10003eb8:	afa50030 	sw	a1,48(sp)
10003ebc:	8fa50030 	lw	a1,48(sp)
10003ec0:	3c041000 	lui	a0,0x1000
10003ec4:	afa50010 	sw	a1,16(sp)
10003ec8:	afbe0014 	sw	s8,20(sp)
10003ecc:	afb50018 	sw	s5,24(sp)
10003ed0:	afa2001c 	sw	v0,28(sp)
10003ed4:	afb70020 	sw	s7,32(sp)
10003ed8:	24844da4 	addiu	a0,a0,19876
10003edc:	26050002 	addiu	a1,s0,2
10003ee0:	02603025 	move	a2,s3
10003ee4:	0c0001e3 	jal	1000078c <kprintf>
10003ee8:	02803825 	move	a3,s4
10003eec:	16200020 	bnez	s1,10003f70 <hf_spawn+0x2d0>
10003ef0:	3c021009 	lui	v0,0x1009
10003ef4:	3c021009 	lui	v0,0x1009
10003ef8:	8c44212c 	lw	a0,8492(v0)
10003efc:	8ec5211c 	lw	a1,8476(s6)
10003f00:	0c000d11 	jal	10003444 <hf_queue_addtail>
10003f04:	00000000 	nop
10003f08:	14400030 	bnez	v0,10003fcc <hf_spawn+0x32c>
10003f0c:	00000000 	nop
10003f10:	3c021009 	lui	v0,0x1009
10003f14:	94452118 	lhu	a1,8472(v0)
10003f18:	8fa4002c 	lw	a0,44(sp)
10003f1c:	00051880 	sll	v1,a1,0x2
10003f20:	00051100 	sll	v0,a1,0x4
10003f24:	00621021 	addu	v0,v1,v0
10003f28:	00451023 	subu	v0,v0,a1
10003f2c:	000210c0 	sll	v0,v0,0x3
10003f30:	02429021 	addu	s2,s2,v0
10003f34:	0c00007b 	jal	100001ec <_interrupt_set>
10003f38:	aed2211c 	sw	s2,8476(s6)
10003f3c:	8fa20028 	lw	v0,40(sp)
10003f40:	8fbf005c 	lw	ra,92(sp)
10003f44:	8fbe0058 	lw	s8,88(sp)
10003f48:	8fb70054 	lw	s7,84(sp)
10003f4c:	8fb60050 	lw	s6,80(sp)
10003f50:	8fb5004c 	lw	s5,76(sp)
10003f54:	8fb40048 	lw	s4,72(sp)
10003f58:	8fb30044 	lw	s3,68(sp)
10003f5c:	8fb20040 	lw	s2,64(sp)
10003f60:	8fb1003c 	lw	s1,60(sp)
10003f64:	8fb00038 	lw	s0,56(sp)
10003f68:	03e00008 	jr	ra
10003f6c:	27bd0060 	addiu	sp,sp,96
10003f70:	8c442130 	lw	a0,8496(v0)
10003f74:	8ec5211c 	lw	a1,8476(s6)
10003f78:	0c000d11 	jal	10003444 <hf_queue_addtail>
10003f7c:	00000000 	nop
10003f80:	1040ffe3 	beqz	v0,10003f10 <hf_spawn+0x270>
10003f84:	00000000 	nop
10003f88:	0c000978 	jal	100025e0 <panic>
10003f8c:	2404000b 	li	a0,11
10003f90:	08000fc5 	j	10003f14 <hf_spawn+0x274>
10003f94:	3c021009 	lui	v0,0x1009
10003f98:	08000fd0 	j	10003f40 <hf_spawn+0x2a0>
10003f9c:	2402ff9b 	li	v0,-101
10003fa0:	97c22124 	lhu	v0,8484(s8)
10003fa4:	00000000 	nop
10003fa8:	2442ffff 	addiu	v0,v0,-1
10003fac:	ae000088 	sw	zero,136(s0)
10003fb0:	24844dec 	addiu	a0,a0,19948
10003fb4:	0c0001e3 	jal	1000078c <kprintf>
10003fb8:	a7c22124 	sh	v0,8484(s8)
10003fbc:	2402ff98 	li	v0,-104
10003fc0:	afa20028 	sw	v0,40(sp)
10003fc4:	08000fc5 	j	10003f14 <hf_spawn+0x274>
10003fc8:	3c021009 	lui	v0,0x1009
10003fcc:	0c000978 	jal	100025e0 <panic>
10003fd0:	24040009 	li	a0,9
10003fd4:	08000fc5 	j	10003f14 <hf_spawn+0x274>
10003fd8:	3c021009 	lui	v0,0x1009
10003fdc:	24844d7c 	addiu	a0,a0,19836
10003fe0:	0c0001e3 	jal	1000078c <kprintf>
10003fe4:	2405001e 	li	a1,30
10003fe8:	8fa4002c 	lw	a0,44(sp)
10003fec:	0c00007b 	jal	100001ec <_interrupt_set>
10003ff0:	00000000 	nop
10003ff4:	08000fd0 	j	10003f40 <hf_spawn+0x2a0>
10003ff8:	2402ff99 	li	v0,-103

10003ffc <hf_yield>:
10003ffc:	27bdffe0 	addiu	sp,sp,-32
10004000:	00002025 	move	a0,zero
10004004:	afbf001c 	sw	ra,28(sp)
10004008:	0c00007b 	jal	100001ec <_interrupt_set>
1000400c:	afb00018 	sw	s0,24(sp)
10004010:	3c031009 	lui	v1,0x1009
10004014:	94652118 	lhu	a1,8472(v1)
10004018:	afa20010 	sw	v0,16(sp)
1000401c:	00052080 	sll	a0,a1,0x2
10004020:	00051900 	sll	v1,a1,0x4
10004024:	00831821 	addu	v1,a0,v1
10004028:	00651823 	subu	v1,v1,a1
1000402c:	000318c0 	sll	v1,v1,0x3
10004030:	3c041001 	lui	a0,0x1001
10004034:	24846d5c 	addiu	a0,a0,27996
10004038:	24650038 	addiu	a1,v1,56
1000403c:	3c021009 	lui	v0,0x1009
10004040:	00831821 	addu	v1,a0,v1
10004044:	00852021 	addu	a0,a0,a1
10004048:	0c00008f 	jal	1000023c <setjmp>
1000404c:	ac43211c 	sw	v1,8476(v0)
10004050:	14400033 	bnez	v0,10004120 <hf_yield+0x124>
10004054:	3c021009 	lui	v0,0x1009
10004058:	8c42211c 	lw	v0,8476(v0)
1000405c:	24030002 	li	v1,2
10004060:	90440016 	lbu	a0,22(v0)
10004064:	00000000 	nop
10004068:	10830034 	beq	a0,v1,1000413c <hf_yield+0x140>
1000406c:	24030001 	li	v1,1
10004070:	8c42008c 	lw	v0,140(v0)
10004074:	00000000 	nop
10004078:	8c430000 	lw	v1,0(v0)
1000407c:	3c02b00b 	lui	v0,0xb00b
10004080:	3442b00b 	ori	v0,v0,0xb00b
10004084:	10620004 	beq	v1,v0,10004098 <hf_yield+0x9c>
10004088:	3c021009 	lui	v0,0x1009
1000408c:	0c000978 	jal	100025e0 <panic>
10004090:	24040002 	li	a0,2
10004094:	3c021009 	lui	v0,0x1009
10004098:	94422124 	lhu	v0,8484(v0)
1000409c:	00000000 	nop
100040a0:	14400007 	bnez	v0,100040c0 <hf_yield+0xc4>
100040a4:	3c101009 	lui	s0,0x1009
100040a8:	0c000978 	jal	100025e0 <panic>
100040ac:	24040003 	li	a0,3
100040b0:	8fbf001c 	lw	ra,28(sp)
100040b4:	8fb00018 	lw	s0,24(sp)
100040b8:	03e00008 	jr	ra
100040bc:	27bd0020 	addiu	sp,sp,32
100040c0:	2610204c 	addiu	s0,s0,8268
100040c4:	8e020004 	lw	v0,4(s0)
100040c8:	00000000 	nop
100040cc:	0040f809 	jalr	v0
100040d0:	00000000 	nop
100040d4:	3c031009 	lui	v1,0x1009
100040d8:	8c66211c 	lw	a2,8476(v1)
100040dc:	8e030008 	lw	v1,8(s0)
100040e0:	8fa50010 	lw	a1,16(sp)
100040e4:	24070002 	li	a3,2
100040e8:	24630001 	addiu	v1,v1,1
100040ec:	24c40038 	addiu	a0,a2,56
100040f0:	a0c70016 	sb	a3,22(a2)
100040f4:	3c071009 	lui	a3,0x1009
100040f8:	3046ffff 	andi	a2,v0,0xffff
100040fc:	ae030008 	sw	v1,8(s0)
10004100:	0c0000ab 	jal	100002ac <_restoreexec>
10004104:	a4e22118 	sh	v0,8472(a3)
10004108:	0c000978 	jal	100025e0 <panic>
1000410c:	240400ff 	li	a0,255
10004110:	8fbf001c 	lw	ra,28(sp)
10004114:	8fb00018 	lw	s0,24(sp)
10004118:	03e00008 	jr	ra
1000411c:	27bd0020 	addiu	sp,sp,32
10004120:	8fa40010 	lw	a0,16(sp)
10004124:	0c00007b 	jal	100001ec <_interrupt_set>
10004128:	00000000 	nop
1000412c:	8fbf001c 	lw	ra,28(sp)
10004130:	8fb00018 	lw	s0,24(sp)
10004134:	03e00008 	jr	ra
10004138:	27bd0020 	addiu	sp,sp,32
1000413c:	0800101c 	j	10004070 <hf_yield+0x74>
10004140:	a0430016 	sb	v1,22(v0)

10004144 <hf_kill>:
10004144:	27bdffc8 	addiu	sp,sp,-56
10004148:	afb20020 	sw	s2,32(sp)
1000414c:	3092ffff 	andi	s2,a0,0xffff
10004150:	00002025 	move	a0,zero
10004154:	afbf0034 	sw	ra,52(sp)
10004158:	afb60030 	sw	s6,48(sp)
1000415c:	afb5002c 	sw	s5,44(sp)
10004160:	afb40028 	sw	s4,40(sp)
10004164:	afb30024 	sw	s3,36(sp)
10004168:	afb1001c 	sw	s1,28(sp)
1000416c:	0c00007b 	jal	100001ec <_interrupt_set>
10004170:	afb00018 	sw	s0,24(sp)
10004174:	afa20010 	sw	v0,16(sp)
10004178:	124000c1 	beqz	s2,10004480 <hf_kill+0x33c>
1000417c:	00121900 	sll	v1,s2,0x4
10004180:	00121080 	sll	v0,s2,0x2
10004184:	00431021 	addu	v0,v0,v1
10004188:	00521023 	subu	v0,v0,s2
1000418c:	3c141001 	lui	s4,0x1001
10004190:	000210c0 	sll	v0,v0,0x3
10004194:	26946d5c 	addiu	s4,s4,27996
10004198:	02821021 	addu	v0,s4,v0
1000419c:	8c430088 	lw	v1,136(v0)
100041a0:	3c111009 	lui	s1,0x1009
100041a4:	106000a6 	beqz	v1,10004440 <hf_kill+0x2fc>
100041a8:	ae22211c 	sw	v0,8476(s1)
100041ac:	2e43001e 	sltiu	v1,s2,30
100041b0:	106000a3 	beqz	v1,10004440 <hf_kill+0x2fc>
100041b4:	2403ffff 	li	v1,-1
100041b8:	8c44008c 	lw	a0,140(v0)
100041bc:	a4430000 	sh	v1,0(v0)
100041c0:	0c000537 	jal	100014dc <hf_free>
100041c4:	ac400088 	sw	zero,136(v0)
100041c8:	8e22211c 	lw	v0,8476(s1)
100041cc:	00002825 	move	a1,zero
100041d0:	94440000 	lhu	a0,0(v0)
100041d4:	0c000100 	jal	10000400 <_set_task_sp>
100041d8:	3c161009 	lui	s6,0x1009
100041dc:	8e22211c 	lw	v0,8476(s1)
100041e0:	00000000 	nop
100041e4:	94440000 	lhu	a0,0(v0)
100041e8:	0c000117 	jal	1000045c <_set_task_tp>
100041ec:	00002825 	move	a1,zero
100041f0:	8e23211c 	lw	v1,8476(s1)
100041f4:	96c22124 	lhu	v0,8484(s6)
100041f8:	9464002c 	lhu	a0,44(v1)
100041fc:	2442ffff 	addiu	v0,v0,-1
10004200:	a0600016 	sb	zero,22(v1)
10004204:	1080004a 	beqz	a0,10004330 <hf_kill+0x1ec>
10004208:	a6c22124 	sh	v0,8484(s6)
1000420c:	3c151009 	lui	s5,0x1009
10004210:	8ea42130 	lw	a0,8496(s5)
10004214:	0c000d0e 	jal	10003438 <hf_queue_count>
10004218:	00008025 	move	s0,zero
1000421c:	1c400005 	bgtz	v0,10004234 <hf_kill+0xf0>
10004220:	00409825 	move	s3,v0
10004224:	08001102 	j	10004408 <hf_kill+0x2c4>
10004228:	00000000 	nop
1000422c:	12130078 	beq	s0,s3,10004410 <hf_kill+0x2cc>
10004230:	00000000 	nop
10004234:	8ea42130 	lw	a0,8496(s5)
10004238:	0c000d3d 	jal	100034f4 <hf_queue_get>
1000423c:	02002825 	move	a1,s0
10004240:	8e23211c 	lw	v1,8476(s1)
10004244:	00000000 	nop
10004248:	1462fff8 	bne	v1,v0,1000422c <hf_kill+0xe8>
1000424c:	26100001 	addiu	s0,s0,1
10004250:	2610ffff 	addiu	s0,s0,-1
10004254:	1a00000a 	blez	s0,10004280 <hf_kill+0x13c>
10004258:	00000000 	nop
1000425c:	2613ffff 	addiu	s3,s0,-1
10004260:	8ea42130 	lw	a0,8496(s5)
10004264:	02002825 	move	a1,s0
10004268:	0c000d55 	jal	10003554 <hf_queue_swap>
1000426c:	02603025 	move	a2,s3
10004270:	14400051 	bnez	v0,100043b8 <hf_kill+0x274>
10004274:	02608025 	move	s0,s3
10004278:	1600fff8 	bnez	s0,1000425c <hf_kill+0x118>
1000427c:	00000000 	nop
10004280:	8ea42130 	lw	a0,8496(s5)
10004284:	0c000d27 	jal	1000349c <hf_queue_remhead>
10004288:	00000000 	nop
1000428c:	10400005 	beqz	v0,100042a4 <hf_kill+0x160>
10004290:	00000000 	nop
10004294:	8e23211c 	lw	v1,8476(s1)
10004298:	00000000 	nop
1000429c:	10430004 	beq	v0,v1,100042b0 <hf_kill+0x16c>
100042a0:	3c021009 	lui	v0,0x1009
100042a4:	0c000978 	jal	100025e0 <panic>
100042a8:	24040008 	li	a0,8
100042ac:	3c021009 	lui	v0,0x1009
100042b0:	94442118 	lhu	a0,8472(v0)
100042b4:	96c62124 	lhu	a2,8484(s6)
100042b8:	00041880 	sll	v1,a0,0x2
100042bc:	00041100 	sll	v0,a0,0x4
100042c0:	00621021 	addu	v0,v1,v0
100042c4:	00441023 	subu	v0,v0,a0
100042c8:	000210c0 	sll	v0,v0,0x3
100042cc:	3c041000 	lui	a0,0x1000
100042d0:	0282a021 	addu	s4,s4,v0
100042d4:	24844ef8 	addiu	a0,a0,20216
100042d8:	02402825 	move	a1,s2
100042dc:	0c0001e3 	jal	1000078c <kprintf>
100042e0:	ae34211c 	sw	s4,8476(s1)
100042e4:	8e22211c 	lw	v0,8476(s1)
100042e8:	8fa40010 	lw	a0,16(sp)
100042ec:	94420000 	lhu	v0,0(v0)
100042f0:	00000000 	nop
100042f4:	1052004c 	beq	v0,s2,10004428 <hf_kill+0x2e4>
100042f8:	00000000 	nop
100042fc:	0c00007b 	jal	100001ec <_interrupt_set>
10004300:	00000000 	nop
10004304:	00001025 	move	v0,zero
10004308:	8fbf0034 	lw	ra,52(sp)
1000430c:	8fb60030 	lw	s6,48(sp)
10004310:	8fb5002c 	lw	s5,44(sp)
10004314:	8fb40028 	lw	s4,40(sp)
10004318:	8fb30024 	lw	s3,36(sp)
1000431c:	8fb20020 	lw	s2,32(sp)
10004320:	8fb1001c 	lw	s1,28(sp)
10004324:	8fb00018 	lw	s0,24(sp)
10004328:	03e00008 	jr	ra
1000432c:	27bd0038 	addiu	sp,sp,56
10004330:	3c151009 	lui	s5,0x1009
10004334:	8ea4212c 	lw	a0,8492(s5)
10004338:	0c000d0e 	jal	10003438 <hf_queue_count>
1000433c:	00008025 	move	s0,zero
10004340:	1c400005 	bgtz	v0,10004358 <hf_kill+0x214>
10004344:	00409825 	move	s3,v0
10004348:	080010fa 	j	100043e8 <hf_kill+0x2a4>
1000434c:	00000000 	nop
10004350:	12130027 	beq	s0,s3,100043f0 <hf_kill+0x2ac>
10004354:	00000000 	nop
10004358:	8ea4212c 	lw	a0,8492(s5)
1000435c:	0c000d3d 	jal	100034f4 <hf_queue_get>
10004360:	02002825 	move	a1,s0
10004364:	8e23211c 	lw	v1,8476(s1)
10004368:	00000000 	nop
1000436c:	1462fff8 	bne	v1,v0,10004350 <hf_kill+0x20c>
10004370:	26100001 	addiu	s0,s0,1
10004374:	2610ffff 	addiu	s0,s0,-1
10004378:	1a00000a 	blez	s0,100043a4 <hf_kill+0x260>
1000437c:	00000000 	nop
10004380:	2613ffff 	addiu	s3,s0,-1
10004384:	8ea4212c 	lw	a0,8492(s5)
10004388:	02002825 	move	a1,s0
1000438c:	0c000d55 	jal	10003554 <hf_queue_swap>
10004390:	02603025 	move	a2,s3
10004394:	1440000e 	bnez	v0,100043d0 <hf_kill+0x28c>
10004398:	02608025 	move	s0,s3
1000439c:	1600fff8 	bnez	s0,10004380 <hf_kill+0x23c>
100043a0:	00000000 	nop
100043a4:	8ea4212c 	lw	a0,8492(s5)
100043a8:	0c000d27 	jal	1000349c <hf_queue_remhead>
100043ac:	00000000 	nop
100043b0:	080010a3 	j	1000428c <hf_kill+0x148>
100043b4:	00000000 	nop
100043b8:	0c000978 	jal	100025e0 <panic>
100043bc:	2404000c 	li	a0,12
100043c0:	1600ffa6 	bnez	s0,1000425c <hf_kill+0x118>
100043c4:	00000000 	nop
100043c8:	080010a0 	j	10004280 <hf_kill+0x13c>
100043cc:	00000000 	nop
100043d0:	0c000978 	jal	100025e0 <panic>
100043d4:	2404000c 	li	a0,12
100043d8:	1600ffe9 	bnez	s0,10004380 <hf_kill+0x23c>
100043dc:	00000000 	nop
100043e0:	080010e9 	j	100043a4 <hf_kill+0x260>
100043e4:	00000000 	nop
100043e8:	10400003 	beqz	v0,100043f8 <hf_kill+0x2b4>
100043ec:	00000000 	nop
100043f0:	1613ffe1 	bne	s0,s3,10004378 <hf_kill+0x234>
100043f4:	00000000 	nop
100043f8:	0c000978 	jal	100025e0 <panic>
100043fc:	24040005 	li	a0,5
10004400:	080010de 	j	10004378 <hf_kill+0x234>
10004404:	00000000 	nop
10004408:	10400003 	beqz	v0,10004418 <hf_kill+0x2d4>
1000440c:	00000000 	nop
10004410:	1613ff90 	bne	s0,s3,10004254 <hf_kill+0x110>
10004414:	00000000 	nop
10004418:	0c000978 	jal	100025e0 <panic>
1000441c:	24040006 	li	a0,6
10004420:	08001095 	j	10004254 <hf_kill+0x110>
10004424:	00000000 	nop
10004428:	0c00007b 	jal	100001ec <_interrupt_set>
1000442c:	00000000 	nop
10004430:	0c000fff 	jal	10003ffc <hf_yield>
10004434:	00000000 	nop
10004438:	080010c2 	j	10004308 <hf_kill+0x1c4>
1000443c:	00001025 	move	v0,zero
10004440:	3c041000 	lui	a0,0x1000
10004444:	0c0001e3 	jal	1000078c <kprintf>
10004448:	24844e38 	addiu	a0,a0,20024
1000444c:	3c021009 	lui	v0,0x1009
10004450:	94452118 	lhu	a1,8472(v0)
10004454:	8fa40010 	lw	a0,16(sp)
10004458:	00051880 	sll	v1,a1,0x2
1000445c:	00051100 	sll	v0,a1,0x4
10004460:	00621021 	addu	v0,v1,v0
10004464:	00451023 	subu	v0,v0,a1
10004468:	000210c0 	sll	v0,v0,0x3
1000446c:	0282a021 	addu	s4,s4,v0
10004470:	0c00007b 	jal	100001ec <_interrupt_set>
10004474:	ae34211c 	sw	s4,8476(s1)
10004478:	080010c2 	j	10004308 <hf_kill+0x1c4>
1000447c:	2402ff9c 	li	v0,-100
10004480:	3c041000 	lui	a0,0x1000
10004484:	0c0001e3 	jal	1000078c <kprintf>
10004488:	24844ed4 	addiu	a0,a0,20180
1000448c:	8fa40010 	lw	a0,16(sp)
10004490:	0c00007b 	jal	100001ec <_interrupt_set>
10004494:	00000000 	nop
10004498:	080010c2 	j	10004308 <hf_kill+0x1c4>
1000449c:	2402ff9c 	li	v0,-100
